
Nixie.elf:     file format elf32-avr

Sections:
Idx Name          Size      VMA       LMA       File off  Algn
  0 .data         00000204  00800100  0000317c  00003210  2**0
                  CONTENTS, ALLOC, LOAD, DATA
  1 .text         0000317c  00000000  00000000  00000094  2**1
                  CONTENTS, ALLOC, LOAD, READONLY, CODE
  2 .bss          0000021d  00800304  00800304  00003414  2**0
                  ALLOC
  3 .stab         00002d00  00000000  00000000  00003414  2**2
                  CONTENTS, READONLY, DEBUGGING
  4 .stabstr      00000a2d  00000000  00000000  00006114  2**0
                  CONTENTS, READONLY, DEBUGGING
  5 .debug_aranges 000002a0  00000000  00000000  00006b48  2**3
                  CONTENTS, READONLY, DEBUGGING
  6 .debug_info   00002db0  00000000  00000000  00006de8  2**0
                  CONTENTS, READONLY, DEBUGGING
  7 .debug_abbrev 00000f2c  00000000  00000000  00009b98  2**0
                  CONTENTS, READONLY, DEBUGGING
  8 .debug_line   00001878  00000000  00000000  0000aac4  2**0
                  CONTENTS, READONLY, DEBUGGING
  9 .debug_frame  00000a38  00000000  00000000  0000c33c  2**2
                  CONTENTS, READONLY, DEBUGGING
 10 .debug_str    0000090b  00000000  00000000  0000cd74  2**0
                  CONTENTS, READONLY, DEBUGGING
 11 .debug_loc    00002753  00000000  00000000  0000d67f  2**0
                  CONTENTS, READONLY, DEBUGGING
 12 .debug_ranges 000000a8  00000000  00000000  0000fdd2  2**0
                  CONTENTS, READONLY, DEBUGGING

Disassembly of section .text:

00000000 <__vectors>:
       0:	0c 94 34 00 	jmp	0x68	; 0x68 <__ctors_end>
       4:	0c 94 51 00 	jmp	0xa2	; 0xa2 <__bad_interrupt>
       8:	0c 94 51 00 	jmp	0xa2	; 0xa2 <__bad_interrupt>
       c:	0c 94 51 00 	jmp	0xa2	; 0xa2 <__bad_interrupt>
      10:	0c 94 51 00 	jmp	0xa2	; 0xa2 <__bad_interrupt>
      14:	0c 94 51 00 	jmp	0xa2	; 0xa2 <__bad_interrupt>
      18:	0c 94 51 00 	jmp	0xa2	; 0xa2 <__bad_interrupt>
      1c:	0c 94 87 0b 	jmp	0x170e	; 0x170e <__vector_7>
      20:	0c 94 51 00 	jmp	0xa2	; 0xa2 <__bad_interrupt>
      24:	0c 94 51 00 	jmp	0xa2	; 0xa2 <__bad_interrupt>
      28:	0c 94 51 00 	jmp	0xa2	; 0xa2 <__bad_interrupt>
      2c:	0c 94 51 00 	jmp	0xa2	; 0xa2 <__bad_interrupt>
      30:	0c 94 51 00 	jmp	0xa2	; 0xa2 <__bad_interrupt>
      34:	0c 94 51 00 	jmp	0xa2	; 0xa2 <__bad_interrupt>
      38:	0c 94 51 00 	jmp	0xa2	; 0xa2 <__bad_interrupt>
      3c:	0c 94 51 00 	jmp	0xa2	; 0xa2 <__bad_interrupt>
      40:	0c 94 51 00 	jmp	0xa2	; 0xa2 <__bad_interrupt>
      44:	0c 94 51 00 	jmp	0xa2	; 0xa2 <__bad_interrupt>
      48:	0c 94 9b 11 	jmp	0x2336	; 0x2336 <__vector_18>
      4c:	0c 94 5a 11 	jmp	0x22b4	; 0x22b4 <__vector_19>
      50:	0c 94 51 00 	jmp	0xa2	; 0xa2 <__bad_interrupt>
      54:	0c 94 51 00 	jmp	0xa2	; 0xa2 <__bad_interrupt>
      58:	0c 94 51 00 	jmp	0xa2	; 0xa2 <__bad_interrupt>
      5c:	0c 94 51 00 	jmp	0xa2	; 0xa2 <__bad_interrupt>
      60:	0c 94 51 00 	jmp	0xa2	; 0xa2 <__bad_interrupt>
      64:	0c 94 51 00 	jmp	0xa2	; 0xa2 <__bad_interrupt>

00000068 <__ctors_end>:
      68:	11 24       	eor	r1, r1
      6a:	1f be       	out	0x3f, r1	; 63
      6c:	cf ef       	ldi	r28, 0xFF	; 255
      6e:	d8 e0       	ldi	r29, 0x08	; 8
      70:	de bf       	out	0x3e, r29	; 62
      72:	cd bf       	out	0x3d, r28	; 61

00000074 <__do_copy_data>:
      74:	13 e0       	ldi	r17, 0x03	; 3
      76:	a0 e0       	ldi	r26, 0x00	; 0
      78:	b1 e0       	ldi	r27, 0x01	; 1
      7a:	ec e7       	ldi	r30, 0x7C	; 124
      7c:	f1 e3       	ldi	r31, 0x31	; 49
      7e:	02 c0       	rjmp	.+4      	; 0x84 <__do_copy_data+0x10>
      80:	05 90       	lpm	r0, Z+
      82:	0d 92       	st	X+, r0
      84:	a4 30       	cpi	r26, 0x04	; 4
      86:	b1 07       	cpc	r27, r17
      88:	d9 f7       	brne	.-10     	; 0x80 <__do_copy_data+0xc>

0000008a <__do_clear_bss>:
      8a:	15 e0       	ldi	r17, 0x05	; 5
      8c:	a4 e0       	ldi	r26, 0x04	; 4
      8e:	b3 e0       	ldi	r27, 0x03	; 3
      90:	01 c0       	rjmp	.+2      	; 0x94 <.do_clear_bss_start>

00000092 <.do_clear_bss_loop>:
      92:	1d 92       	st	X+, r1

00000094 <.do_clear_bss_start>:
      94:	a1 32       	cpi	r26, 0x21	; 33
      96:	b1 07       	cpc	r27, r17
      98:	e1 f7       	brne	.-8      	; 0x92 <.do_clear_bss_loop>
      9a:	0e 94 11 0d 	call	0x1a22	; 0x1a22 <main>
      9e:	0c 94 bc 18 	jmp	0x3178	; 0x3178 <_exit>

000000a2 <__bad_interrupt>:
      a2:	0c 94 00 00 	jmp	0	; 0x0 <__vectors>

000000a6 <print_dow>:
  else return NO_ERR;
} // rs232_command_handler()

void print_dow(uint8_t dow)
{
	switch (dow)
      a6:	84 30       	cpi	r24, 0x04	; 4
      a8:	f9 f0       	breq	.+62     	; 0xe8 <print_dow+0x42>
      aa:	85 30       	cpi	r24, 0x05	; 5
      ac:	38 f4       	brcc	.+14     	; 0xbc <print_dow+0x16>
      ae:	82 30       	cpi	r24, 0x02	; 2
      b0:	89 f0       	breq	.+34     	; 0xd4 <print_dow+0x2e>
      b2:	83 30       	cpi	r24, 0x03	; 3
      b4:	a0 f4       	brcc	.+40     	; 0xde <print_dow+0x38>
      b6:	81 30       	cpi	r24, 0x01	; 1
      b8:	51 f5       	brne	.+84     	; 0x10e <print_dow+0x68>
      ba:	07 c0       	rjmp	.+14     	; 0xca <print_dow+0x24>
      bc:	86 30       	cpi	r24, 0x06	; 6
      be:	f1 f0       	breq	.+60     	; 0xfc <print_dow+0x56>
      c0:	86 30       	cpi	r24, 0x06	; 6
      c2:	b8 f0       	brcs	.+46     	; 0xf2 <print_dow+0x4c>
      c4:	87 30       	cpi	r24, 0x07	; 7
      c6:	19 f5       	brne	.+70     	; 0x10e <print_dow+0x68>
      c8:	1e c0       	rjmp	.+60     	; 0x106 <print_dow+0x60>
	{
		case 1: xputs("Mon"); break;
      ca:	80 e0       	ldi	r24, 0x00	; 0
      cc:	91 e0       	ldi	r25, 0x01	; 1
      ce:	0e 94 c2 12 	call	0x2584	; 0x2584 <xputs>
      d2:	08 95       	ret
		case 2: xputs("Tue"); break;
      d4:	84 e0       	ldi	r24, 0x04	; 4
      d6:	91 e0       	ldi	r25, 0x01	; 1
      d8:	0e 94 c2 12 	call	0x2584	; 0x2584 <xputs>
      dc:	08 95       	ret
		case 3: xputs("Wed"); break;
      de:	88 e0       	ldi	r24, 0x08	; 8
      e0:	91 e0       	ldi	r25, 0x01	; 1
      e2:	0e 94 c2 12 	call	0x2584	; 0x2584 <xputs>
      e6:	08 95       	ret
		case 4: xputs("Thu"); break;
      e8:	8c e0       	ldi	r24, 0x0C	; 12
      ea:	91 e0       	ldi	r25, 0x01	; 1
      ec:	0e 94 c2 12 	call	0x2584	; 0x2584 <xputs>
      f0:	08 95       	ret
		case 5: xputs("Fri"); break;
      f2:	80 e1       	ldi	r24, 0x10	; 16
      f4:	91 e0       	ldi	r25, 0x01	; 1
      f6:	0e 94 c2 12 	call	0x2584	; 0x2584 <xputs>
      fa:	08 95       	ret
		case 6: xputs("Sat"); break;
      fc:	84 e1       	ldi	r24, 0x14	; 20
      fe:	91 e0       	ldi	r25, 0x01	; 1
     100:	0e 94 c2 12 	call	0x2584	; 0x2584 <xputs>
     104:	08 95       	ret
		case 7: xputs("Sun"); break;
     106:	88 e1       	ldi	r24, 0x18	; 24
     108:	91 e0       	ldi	r25, 0x01	; 1
     10a:	0e 94 c2 12 	call	0x2584	; 0x2584 <xputs>
     10e:	08 95       	ret

00000110 <execute_single_command>:
  Variables: 
          s: the string that contains the command from RS232 serial port 0
  Returns  : [NO_ERR, ERR_CMD, ERR_NUM, ERR_I2C] or ack. value for command
  ---------------------------------------------------------------------------*/
uint8_t execute_single_command(char *s)
{
     110:	cf 92       	push	r12
     112:	df 92       	push	r13
     114:	ef 92       	push	r14
     116:	ff 92       	push	r15
     118:	0f 93       	push	r16
     11a:	1f 93       	push	r17
     11c:	cf 93       	push	r28
     11e:	df 93       	push	r29
     120:	cd b7       	in	r28, 0x3d	; 61
     122:	de b7       	in	r29, 0x3e	; 62
     124:	e0 97       	sbiw	r28, 0x30	; 48
     126:	0f b6       	in	r0, 0x3f	; 63
     128:	f8 94       	cli
     12a:	de bf       	out	0x3e, r29	; 62
     12c:	0f be       	out	0x3f, r0	; 63
     12e:	cd bf       	out	0x3d, r28	; 61
     130:	8c 01       	movw	r16, r24
   uint8_t  num  = atoi(&s[1]); // convert number in command (until space is found)
     132:	01 96       	adiw	r24, 0x01	; 1
     134:	0e 94 73 15 	call	0x2ae6	; 0x2ae6 <atoi>
   uint8_t  d,m,h,sec;
   uint16_t y;
   Time     p;
   int16_t  temp;
   
   switch (s[0])
     138:	d8 01       	movw	r26, r16
     13a:	9c 91       	ld	r25, X
     13c:	9c 36       	cpi	r25, 0x6C	; 108
     13e:	09 f4       	brne	.+2      	; 0x142 <execute_single_command+0x32>
     140:	5e c1       	rjmp	.+700    	; 0x3fe <execute_single_command+0x2ee>
     142:	93 37       	cpi	r25, 0x73	; 115
     144:	09 f4       	brne	.+2      	; 0x148 <execute_single_command+0x38>
     146:	62 c1       	rjmp	.+708    	; 0x40c <execute_single_command+0x2fc>
     148:	94 36       	cpi	r25, 0x64	; 100
     14a:	09 f0       	breq	.+2      	; 0x14e <execute_single_command+0x3e>
     14c:	74 c1       	rjmp	.+744    	; 0x436 <execute_single_command+0x326>
   {
	   case 'd': // Set Date and Time
				 switch (num)
     14e:	81 30       	cpi	r24, 0x01	; 1
     150:	09 f4       	brne	.+2      	; 0x154 <execute_single_command+0x44>
     152:	65 c0       	rjmp	.+202    	; 0x21e <execute_single_command+0x10e>
     154:	81 30       	cpi	r24, 0x01	; 1
     156:	38 f0       	brcs	.+14     	; 0x166 <execute_single_command+0x56>
     158:	82 30       	cpi	r24, 0x02	; 2
     15a:	09 f4       	brne	.+2      	; 0x15e <execute_single_command+0x4e>
     15c:	b0 c0       	rjmp	.+352    	; 0x2be <execute_single_command+0x1ae>
     15e:	83 30       	cpi	r24, 0x03	; 3
     160:	09 f0       	breq	.+2      	; 0x164 <execute_single_command+0x54>
     162:	8e c1       	rjmp	.+796    	; 0x480 <execute_single_command+0x370>
     164:	f1 c0       	rjmp	.+482    	; 0x348 <execute_single_command+0x238>
				 {
					 case 0: // Set Date
							s1 = strtok(&s[3],":-");
     166:	0f 2e       	mov	r0, r31
     168:	fc e1       	ldi	r31, 0x1C	; 28
     16a:	ef 2e       	mov	r14, r31
     16c:	f1 e0       	ldi	r31, 0x01	; 1
     16e:	ff 2e       	mov	r15, r31
     170:	f0 2d       	mov	r31, r0
     172:	c8 01       	movw	r24, r16
     174:	03 96       	adiw	r24, 0x03	; 3
     176:	b7 01       	movw	r22, r14
     178:	0e 94 99 15 	call	0x2b32	; 0x2b32 <strtok>
							d  = atoi(s1);
     17c:	0e 94 73 15 	call	0x2ae6	; 0x2ae6 <atoi>
     180:	d8 2e       	mov	r13, r24
							s1 = strtok(NULL ,":-");
     182:	80 e0       	ldi	r24, 0x00	; 0
     184:	90 e0       	ldi	r25, 0x00	; 0
     186:	b7 01       	movw	r22, r14
     188:	0e 94 99 15 	call	0x2b32	; 0x2b32 <strtok>
							m  = atoi(s1);
     18c:	0e 94 73 15 	call	0x2ae6	; 0x2ae6 <atoi>
     190:	c8 2e       	mov	r12, r24
							s1 = strtok(NULL ,":-");
     192:	80 e0       	ldi	r24, 0x00	; 0
     194:	90 e0       	ldi	r25, 0x00	; 0
     196:	b7 01       	movw	r22, r14
     198:	0e 94 99 15 	call	0x2b32	; 0x2b32 <strtok>
							y  = atoi(s1);
     19c:	0e 94 73 15 	call	0x2ae6	; 0x2ae6 <atoi>
     1a0:	e8 2e       	mov	r14, r24
     1a2:	f9 2e       	mov	r15, r25
							xputs("Date: ");
     1a4:	8f e1       	ldi	r24, 0x1F	; 31
     1a6:	91 e0       	ldi	r25, 0x01	; 1
     1a8:	0e 94 c2 12 	call	0x2584	; 0x2584 <xputs>
							print_dow(ds3231_calc_dow(d,m,y));
     1ac:	8d 2d       	mov	r24, r13
     1ae:	6c 2d       	mov	r22, r12
     1b0:	4e 2d       	mov	r20, r14
     1b2:	5f 2d       	mov	r21, r15
     1b4:	0e 94 a6 04 	call	0x94c	; 0x94c <ds3231_calc_dow>
     1b8:	0e 94 53 00 	call	0xa6	; 0xa6 <print_dow>
							sprintf(s2," %02d-%02d-%d\n",d,m,y);
     1bc:	ed b7       	in	r30, 0x3d	; 61
     1be:	fe b7       	in	r31, 0x3e	; 62
     1c0:	3a 97       	sbiw	r30, 0x0a	; 10
     1c2:	0f b6       	in	r0, 0x3f	; 63
     1c4:	f8 94       	cli
     1c6:	fe bf       	out	0x3e, r31	; 62
     1c8:	0f be       	out	0x3f, r0	; 63
     1ca:	ed bf       	out	0x3d, r30	; 61
     1cc:	31 96       	adiw	r30, 0x01	; 1
     1ce:	8e 01       	movw	r16, r28
     1d0:	0f 5f       	subi	r16, 0xFF	; 255
     1d2:	1f 4f       	sbci	r17, 0xFF	; 255
     1d4:	ad b7       	in	r26, 0x3d	; 61
     1d6:	be b7       	in	r27, 0x3e	; 62
     1d8:	12 96       	adiw	r26, 0x02	; 2
     1da:	1c 93       	st	X, r17
     1dc:	0e 93       	st	-X, r16
     1de:	11 97       	sbiw	r26, 0x01	; 1
     1e0:	86 e2       	ldi	r24, 0x26	; 38
     1e2:	91 e0       	ldi	r25, 0x01	; 1
     1e4:	93 83       	std	Z+3, r25	; 0x03
     1e6:	82 83       	std	Z+2, r24	; 0x02
     1e8:	d4 82       	std	Z+4, r13	; 0x04
     1ea:	15 82       	std	Z+5, r1	; 0x05
     1ec:	c6 82       	std	Z+6, r12	; 0x06
     1ee:	17 82       	std	Z+7, r1	; 0x07
     1f0:	e0 86       	std	Z+8, r14	; 0x08
     1f2:	f1 86       	std	Z+9, r15	; 0x09
     1f4:	0e 94 e5 15 	call	0x2bca	; 0x2bca <sprintf>
							xputs(s2);
     1f8:	ed b7       	in	r30, 0x3d	; 61
     1fa:	fe b7       	in	r31, 0x3e	; 62
     1fc:	3a 96       	adiw	r30, 0x0a	; 10
     1fe:	0f b6       	in	r0, 0x3f	; 63
     200:	f8 94       	cli
     202:	fe bf       	out	0x3e, r31	; 62
     204:	0f be       	out	0x3f, r0	; 63
     206:	ed bf       	out	0x3d, r30	; 61
     208:	c8 01       	movw	r24, r16
     20a:	0e 94 c2 12 	call	0x2584	; 0x2584 <xputs>
							ds3231_setdate(d,m,y); // write to DS3231 IC
     20e:	8d 2d       	mov	r24, r13
     210:	6c 2d       	mov	r22, r12
     212:	4e 2d       	mov	r20, r14
     214:	5f 2d       	mov	r21, r15
     216:	0e 94 44 05 	call	0xa88	; 0xa88 <ds3231_setdate>
  Returns  : [NO_ERR, ERR_CMD, ERR_NUM, ERR_I2C] or ack. value for command
  ---------------------------------------------------------------------------*/
uint8_t execute_single_command(char *s)
{
   uint8_t  num  = atoi(&s[1]); // convert number in command (until space is found)
   uint8_t  rval = NO_ERR;
     21a:	80 e0       	ldi	r24, 0x00	; 0
							xputs("Date: ");
							print_dow(ds3231_calc_dow(d,m,y));
							sprintf(s2," %02d-%02d-%d\n",d,m,y);
							xputs(s2);
							ds3231_setdate(d,m,y); // write to DS3231 IC
							break;
     21c:	38 c1       	rjmp	.+624    	; 0x48e <execute_single_command+0x37e>
					 case 1: // Set Time
							s1 = strtok(&s[3],":-.");
     21e:	0f 2e       	mov	r0, r31
     220:	f5 e3       	ldi	r31, 0x35	; 53
     222:	ef 2e       	mov	r14, r31
     224:	f1 e0       	ldi	r31, 0x01	; 1
     226:	ff 2e       	mov	r15, r31
     228:	f0 2d       	mov	r31, r0
     22a:	c8 01       	movw	r24, r16
     22c:	03 96       	adiw	r24, 0x03	; 3
     22e:	b7 01       	movw	r22, r14
     230:	0e 94 99 15 	call	0x2b32	; 0x2b32 <strtok>
							h  = atoi(s1);
     234:	0e 94 73 15 	call	0x2ae6	; 0x2ae6 <atoi>
     238:	d8 2e       	mov	r13, r24
							s1 = strtok(NULL ,":-.");
     23a:	80 e0       	ldi	r24, 0x00	; 0
     23c:	90 e0       	ldi	r25, 0x00	; 0
     23e:	b7 01       	movw	r22, r14
     240:	0e 94 99 15 	call	0x2b32	; 0x2b32 <strtok>
							m  = atoi(s1);
     244:	0e 94 73 15 	call	0x2ae6	; 0x2ae6 <atoi>
     248:	c8 2e       	mov	r12, r24
							s1 = strtok(NULL ,":-.");
     24a:	80 e0       	ldi	r24, 0x00	; 0
     24c:	90 e0       	ldi	r25, 0x00	; 0
     24e:	b7 01       	movw	r22, r14
     250:	0e 94 99 15 	call	0x2b32	; 0x2b32 <strtok>
							sec= atoi(s1);
     254:	0e 94 73 15 	call	0x2ae6	; 0x2ae6 <atoi>
     258:	f8 2e       	mov	r15, r24
							sprintf(s2,"Time: %02d:%02d:%02d\n",h,m,sec);
     25a:	8d b7       	in	r24, 0x3d	; 61
     25c:	9e b7       	in	r25, 0x3e	; 62
     25e:	0a 97       	sbiw	r24, 0x0a	; 10
     260:	0f b6       	in	r0, 0x3f	; 63
     262:	f8 94       	cli
     264:	9e bf       	out	0x3e, r25	; 62
     266:	0f be       	out	0x3f, r0	; 63
     268:	8d bf       	out	0x3d, r24	; 61
     26a:	ed b7       	in	r30, 0x3d	; 61
     26c:	fe b7       	in	r31, 0x3e	; 62
     26e:	31 96       	adiw	r30, 0x01	; 1
     270:	8e 01       	movw	r16, r28
     272:	0f 5f       	subi	r16, 0xFF	; 255
     274:	1f 4f       	sbci	r17, 0xFF	; 255
     276:	ad b7       	in	r26, 0x3d	; 61
     278:	be b7       	in	r27, 0x3e	; 62
     27a:	12 96       	adiw	r26, 0x02	; 2
     27c:	1c 93       	st	X, r17
     27e:	0e 93       	st	-X, r16
     280:	11 97       	sbiw	r26, 0x01	; 1
     282:	89 e3       	ldi	r24, 0x39	; 57
     284:	91 e0       	ldi	r25, 0x01	; 1
     286:	93 83       	std	Z+3, r25	; 0x03
     288:	82 83       	std	Z+2, r24	; 0x02
     28a:	d4 82       	std	Z+4, r13	; 0x04
     28c:	15 82       	std	Z+5, r1	; 0x05
     28e:	c6 82       	std	Z+6, r12	; 0x06
     290:	17 82       	std	Z+7, r1	; 0x07
     292:	f0 86       	std	Z+8, r15	; 0x08
     294:	11 86       	std	Z+9, r1	; 0x09
     296:	0e 94 e5 15 	call	0x2bca	; 0x2bca <sprintf>
							xputs(s2);
     29a:	ed b7       	in	r30, 0x3d	; 61
     29c:	fe b7       	in	r31, 0x3e	; 62
     29e:	3a 96       	adiw	r30, 0x0a	; 10
     2a0:	0f b6       	in	r0, 0x3f	; 63
     2a2:	f8 94       	cli
     2a4:	fe bf       	out	0x3e, r31	; 62
     2a6:	0f be       	out	0x3f, r0	; 63
     2a8:	ed bf       	out	0x3d, r30	; 61
     2aa:	c8 01       	movw	r24, r16
     2ac:	0e 94 c2 12 	call	0x2584	; 0x2584 <xputs>
							ds3231_settime(h,m,sec); // write to DS3231 IC
     2b0:	8d 2d       	mov	r24, r13
     2b2:	6c 2d       	mov	r22, r12
     2b4:	4f 2d       	mov	r20, r15
     2b6:	0e 94 85 04 	call	0x90a	; 0x90a <ds3231_settime>
  Returns  : [NO_ERR, ERR_CMD, ERR_NUM, ERR_I2C] or ack. value for command
  ---------------------------------------------------------------------------*/
uint8_t execute_single_command(char *s)
{
   uint8_t  num  = atoi(&s[1]); // convert number in command (until space is found)
   uint8_t  rval = NO_ERR;
     2ba:	80 e0       	ldi	r24, 0x00	; 0
							s1 = strtok(NULL ,":-.");
							sec= atoi(s1);
							sprintf(s2,"Time: %02d:%02d:%02d\n",h,m,sec);
							xputs(s2);
							ds3231_settime(h,m,sec); // write to DS3231 IC
							break;
     2bc:	e8 c0       	rjmp	.+464    	; 0x48e <execute_single_command+0x37e>
					 case 2: // Get Date & Time
							 ds3231_gettime(&p);
     2be:	ce 01       	movw	r24, r28
     2c0:	89 96       	adiw	r24, 0x29	; 41
     2c2:	0e 94 30 04 	call	0x860	; 0x860 <ds3231_gettime>
							 xputs("DS3231: ");
     2c6:	8f e4       	ldi	r24, 0x4F	; 79
     2c8:	91 e0       	ldi	r25, 0x01	; 1
     2ca:	0e 94 c2 12 	call	0x2584	; 0x2584 <xputs>
							 print_dow(p.dow);
     2ce:	88 a9       	sts	0x48, r24
     2d0:	0e 94 53 00 	call	0xa6	; 0xa6 <print_dow>
							 sprintf(s2," %02d-%02d-%d, %02d:%02d.%02d\n",p.date,p.mon,p.year,p.hour,p.min,p.sec);
     2d4:	8d b7       	in	r24, 0x3d	; 61
     2d6:	9e b7       	in	r25, 0x3e	; 62
     2d8:	40 97       	sbiw	r24, 0x10	; 16
     2da:	0f b6       	in	r0, 0x3f	; 63
     2dc:	f8 94       	cli
     2de:	9e bf       	out	0x3e, r25	; 62
     2e0:	0f be       	out	0x3f, r0	; 63
     2e2:	8d bf       	out	0x3d, r24	; 61
     2e4:	ed b7       	in	r30, 0x3d	; 61
     2e6:	fe b7       	in	r31, 0x3e	; 62
     2e8:	31 96       	adiw	r30, 0x01	; 1
     2ea:	8e 01       	movw	r16, r28
     2ec:	0f 5f       	subi	r16, 0xFF	; 255
     2ee:	1f 4f       	sbci	r17, 0xFF	; 255
     2f0:	ad b7       	in	r26, 0x3d	; 61
     2f2:	be b7       	in	r27, 0x3e	; 62
     2f4:	12 96       	adiw	r26, 0x02	; 2
     2f6:	1c 93       	st	X, r17
     2f8:	0e 93       	st	-X, r16
     2fa:	11 97       	sbiw	r26, 0x01	; 1
     2fc:	88 e5       	ldi	r24, 0x58	; 88
     2fe:	91 e0       	ldi	r25, 0x01	; 1
     300:	93 83       	std	Z+3, r25	; 0x03
     302:	82 83       	std	Z+2, r24	; 0x02
     304:	8c a5       	lds	r24, 0x6c
     306:	84 83       	std	Z+4, r24	; 0x04
     308:	15 82       	std	Z+5, r1	; 0x05
     30a:	8d a5       	lds	r24, 0x6d
     30c:	86 83       	std	Z+6, r24	; 0x06
     30e:	17 82       	std	Z+7, r1	; 0x07
     310:	8e a5       	lds	r24, 0x6e
     312:	9f a5       	lds	r25, 0x6f
     314:	91 87       	std	Z+9, r25	; 0x09
     316:	80 87       	std	Z+8, r24	; 0x08
     318:	89 a5       	lds	r24, 0x69
     31a:	82 87       	std	Z+10, r24	; 0x0a
     31c:	13 86       	std	Z+11, r1	; 0x0b
     31e:	8a a5       	lds	r24, 0x6a
     320:	84 87       	std	Z+12, r24	; 0x0c
     322:	15 86       	std	Z+13, r1	; 0x0d
     324:	8b a5       	lds	r24, 0x6b
     326:	86 87       	std	Z+14, r24	; 0x0e
     328:	17 86       	std	Z+15, r1	; 0x0f
     32a:	0e 94 e5 15 	call	0x2bca	; 0x2bca <sprintf>
							 xputs(s2);
     32e:	ed b7       	in	r30, 0x3d	; 61
     330:	fe b7       	in	r31, 0x3e	; 62
     332:	70 96       	adiw	r30, 0x10	; 16
     334:	0f b6       	in	r0, 0x3f	; 63
     336:	f8 94       	cli
     338:	fe bf       	out	0x3e, r31	; 62
     33a:	0f be       	out	0x3f, r0	; 63
     33c:	ed bf       	out	0x3d, r30	; 61
     33e:	c8 01       	movw	r24, r16
     340:	0e 94 c2 12 	call	0x2584	; 0x2584 <xputs>
  Returns  : [NO_ERR, ERR_CMD, ERR_NUM, ERR_I2C] or ack. value for command
  ---------------------------------------------------------------------------*/
uint8_t execute_single_command(char *s)
{
   uint8_t  num  = atoi(&s[1]); // convert number in command (until space is found)
   uint8_t  rval = NO_ERR;
     344:	80 e0       	ldi	r24, 0x00	; 0
							 ds3231_gettime(&p);
							 xputs("DS3231: ");
							 print_dow(p.dow);
							 sprintf(s2," %02d-%02d-%d, %02d:%02d.%02d\n",p.date,p.mon,p.year,p.hour,p.min,p.sec);
							 xputs(s2);
							 break;
     346:	a3 c0       	rjmp	.+326    	; 0x48e <execute_single_command+0x37e>
					 case 3: // Get Temperature
							 temp = ds3231_gettemp();
     348:	0e 94 81 05 	call	0xb02	; 0xb02 <ds3231_gettemp>
     34c:	7c 01       	movw	r14, r24
							 sprintf(s2,"DS3231: %d.",temp>>2);
     34e:	00 d0       	rcall	.+0      	; 0x350 <execute_single_command+0x240>
     350:	00 d0       	rcall	.+0      	; 0x352 <execute_single_command+0x242>
     352:	00 d0       	rcall	.+0      	; 0x354 <execute_single_command+0x244>
     354:	ed b7       	in	r30, 0x3d	; 61
     356:	fe b7       	in	r31, 0x3e	; 62
     358:	31 96       	adiw	r30, 0x01	; 1
     35a:	8e 01       	movw	r16, r28
     35c:	0f 5f       	subi	r16, 0xFF	; 255
     35e:	1f 4f       	sbci	r17, 0xFF	; 255
     360:	ad b7       	in	r26, 0x3d	; 61
     362:	be b7       	in	r27, 0x3e	; 62
     364:	12 96       	adiw	r26, 0x02	; 2
     366:	1c 93       	st	X, r17
     368:	0e 93       	st	-X, r16
     36a:	11 97       	sbiw	r26, 0x01	; 1
     36c:	87 e7       	ldi	r24, 0x77	; 119
     36e:	91 e0       	ldi	r25, 0x01	; 1
     370:	93 83       	std	Z+3, r25	; 0x03
     372:	82 83       	std	Z+2, r24	; 0x02
     374:	c7 01       	movw	r24, r14
     376:	95 95       	asr	r25
     378:	87 95       	ror	r24
     37a:	95 95       	asr	r25
     37c:	87 95       	ror	r24
     37e:	95 83       	std	Z+5, r25	; 0x05
     380:	84 83       	std	Z+4, r24	; 0x04
     382:	0e 94 e5 15 	call	0x2bca	; 0x2bca <sprintf>
							 xputs(s2);
     386:	ed b7       	in	r30, 0x3d	; 61
     388:	fe b7       	in	r31, 0x3e	; 62
     38a:	36 96       	adiw	r30, 0x06	; 6
     38c:	0f b6       	in	r0, 0x3f	; 63
     38e:	f8 94       	cli
     390:	fe bf       	out	0x3e, r31	; 62
     392:	0f be       	out	0x3f, r0	; 63
     394:	ed bf       	out	0x3d, r30	; 61
     396:	c8 01       	movw	r24, r16
     398:	0e 94 c2 12 	call	0x2584	; 0x2584 <xputs>
							 switch (temp & 0x03)
     39c:	f3 e0       	ldi	r31, 0x03	; 3
     39e:	ef 22       	and	r14, r31
     3a0:	ff 24       	eor	r15, r15
     3a2:	81 e0       	ldi	r24, 0x01	; 1
     3a4:	e8 16       	cp	r14, r24
     3a6:	f1 04       	cpc	r15, r1
     3a8:	c1 f0       	breq	.+48     	; 0x3da <execute_single_command+0x2ca>
     3aa:	92 e0       	ldi	r25, 0x02	; 2
     3ac:	e9 16       	cp	r14, r25
     3ae:	f1 04       	cpc	r15, r1
     3b0:	24 f4       	brge	.+8      	; 0x3ba <execute_single_command+0x2aa>
     3b2:	e1 14       	cp	r14, r1
     3b4:	f1 04       	cpc	r15, r1
     3b6:	59 f0       	breq	.+22     	; 0x3ce <execute_single_command+0x2be>
     3b8:	65 c0       	rjmp	.+202    	; 0x484 <execute_single_command+0x374>
     3ba:	a2 e0       	ldi	r26, 0x02	; 2
     3bc:	ea 16       	cp	r14, r26
     3be:	f1 04       	cpc	r15, r1
     3c0:	91 f0       	breq	.+36     	; 0x3e6 <execute_single_command+0x2d6>
     3c2:	b3 e0       	ldi	r27, 0x03	; 3
     3c4:	eb 16       	cp	r14, r27
     3c6:	f1 04       	cpc	r15, r1
     3c8:	09 f0       	breq	.+2      	; 0x3cc <execute_single_command+0x2bc>
     3ca:	5c c0       	rjmp	.+184    	; 0x484 <execute_single_command+0x374>
     3cc:	12 c0       	rjmp	.+36     	; 0x3f2 <execute_single_command+0x2e2>
							 {
								 case 0: xputs("00 °C\n"); break;
     3ce:	83 e8       	ldi	r24, 0x83	; 131
     3d0:	91 e0       	ldi	r25, 0x01	; 1
     3d2:	0e 94 c2 12 	call	0x2584	; 0x2584 <xputs>
  Returns  : [NO_ERR, ERR_CMD, ERR_NUM, ERR_I2C] or ack. value for command
  ---------------------------------------------------------------------------*/
uint8_t execute_single_command(char *s)
{
   uint8_t  num  = atoi(&s[1]); // convert number in command (until space is found)
   uint8_t  rval = NO_ERR;
     3d6:	80 e0       	ldi	r24, 0x00	; 0
							 temp = ds3231_gettemp();
							 sprintf(s2,"DS3231: %d.",temp>>2);
							 xputs(s2);
							 switch (temp & 0x03)
							 {
								 case 0: xputs("00 °C\n"); break;
     3d8:	5a c0       	rjmp	.+180    	; 0x48e <execute_single_command+0x37e>
								 case 1: xputs("25 °C\n"); break;
     3da:	8a e8       	ldi	r24, 0x8A	; 138
     3dc:	91 e0       	ldi	r25, 0x01	; 1
     3de:	0e 94 c2 12 	call	0x2584	; 0x2584 <xputs>
  Returns  : [NO_ERR, ERR_CMD, ERR_NUM, ERR_I2C] or ack. value for command
  ---------------------------------------------------------------------------*/
uint8_t execute_single_command(char *s)
{
   uint8_t  num  = atoi(&s[1]); // convert number in command (until space is found)
   uint8_t  rval = NO_ERR;
     3e2:	80 e0       	ldi	r24, 0x00	; 0
							 sprintf(s2,"DS3231: %d.",temp>>2);
							 xputs(s2);
							 switch (temp & 0x03)
							 {
								 case 0: xputs("00 °C\n"); break;
								 case 1: xputs("25 °C\n"); break;
     3e4:	54 c0       	rjmp	.+168    	; 0x48e <execute_single_command+0x37e>
								 case 2: xputs("50 °C\n"); break;
     3e6:	81 e9       	ldi	r24, 0x91	; 145
     3e8:	91 e0       	ldi	r25, 0x01	; 1
     3ea:	0e 94 c2 12 	call	0x2584	; 0x2584 <xputs>
  Returns  : [NO_ERR, ERR_CMD, ERR_NUM, ERR_I2C] or ack. value for command
  ---------------------------------------------------------------------------*/
uint8_t execute_single_command(char *s)
{
   uint8_t  num  = atoi(&s[1]); // convert number in command (until space is found)
   uint8_t  rval = NO_ERR;
     3ee:	80 e0       	ldi	r24, 0x00	; 0
							 xputs(s2);
							 switch (temp & 0x03)
							 {
								 case 0: xputs("00 °C\n"); break;
								 case 1: xputs("25 °C\n"); break;
								 case 2: xputs("50 °C\n"); break;
     3f0:	4e c0       	rjmp	.+156    	; 0x48e <execute_single_command+0x37e>
								 case 3: xputs("75 °C\n"); break;
     3f2:	88 e9       	ldi	r24, 0x98	; 152
     3f4:	91 e0       	ldi	r25, 0x01	; 1
     3f6:	0e 94 c2 12 	call	0x2584	; 0x2584 <xputs>
  Returns  : [NO_ERR, ERR_CMD, ERR_NUM, ERR_I2C] or ack. value for command
  ---------------------------------------------------------------------------*/
uint8_t execute_single_command(char *s)
{
   uint8_t  num  = atoi(&s[1]); // convert number in command (until space is found)
   uint8_t  rval = NO_ERR;
     3fa:	80 e0       	ldi	r24, 0x00	; 0
							 switch (temp & 0x03)
							 {
								 case 0: xputs("00 °C\n"); break;
								 case 1: xputs("25 °C\n"); break;
								 case 2: xputs("50 °C\n"); break;
								 case 3: xputs("75 °C\n"); break;
     3fc:	48 c0       	rjmp	.+144    	; 0x48e <execute_single_command+0x37e>
							  break;
				 } // switch
				 break;
				 
	   case 'l': // Set RGB LED [0..7]
				 if (num > 7) 
     3fe:	88 30       	cpi	r24, 0x08	; 8
     400:	08 f0       	brcs	.+2      	; 0x404 <execute_single_command+0x2f4>
     402:	42 c0       	rjmp	.+132    	; 0x488 <execute_single_command+0x378>
				      rval       = ERR_NUM;
				 else rgb_colour = num;
     404:	80 93 0e 03 	sts	0x030E, r24
  Returns  : [NO_ERR, ERR_CMD, ERR_NUM, ERR_I2C] or ack. value for command
  ---------------------------------------------------------------------------*/
uint8_t execute_single_command(char *s)
{
   uint8_t  num  = atoi(&s[1]); // convert number in command (until space is found)
   uint8_t  rval = NO_ERR;
     408:	80 e0       	ldi	r24, 0x00	; 0
     40a:	41 c0       	rjmp	.+130    	; 0x48e <execute_single_command+0x37e>
				      rval       = ERR_NUM;
				 else rgb_colour = num;
				 break;
				 
	   case 's': // System commands
				 switch (num)
     40c:	81 30       	cpi	r24, 0x01	; 1
     40e:	59 f0       	breq	.+22     	; 0x426 <execute_single_command+0x316>
     410:	81 30       	cpi	r24, 0x01	; 1
     412:	18 f0       	brcs	.+6      	; 0x41a <execute_single_command+0x30a>
     414:	82 30       	cpi	r24, 0x02	; 2
     416:	d1 f5       	brne	.+116    	; 0x48c <execute_single_command+0x37c>
     418:	0a c0       	rjmp	.+20     	; 0x42e <execute_single_command+0x31e>
				 {
					 case 0: // revision
							 xputs("Nixie board v0.1\n");
     41a:	8f e9       	ldi	r24, 0x9F	; 159
     41c:	91 e0       	ldi	r25, 0x01	; 1
     41e:	0e 94 c2 12 	call	0x2584	; 0x2584 <xputs>
  Returns  : [NO_ERR, ERR_CMD, ERR_NUM, ERR_I2C] or ack. value for command
  ---------------------------------------------------------------------------*/
uint8_t execute_single_command(char *s)
{
   uint8_t  num  = atoi(&s[1]); // convert number in command (until space is found)
   uint8_t  rval = NO_ERR;
     422:	80 e0       	ldi	r24, 0x00	; 0
	   case 's': // System commands
				 switch (num)
				 {
					 case 0: // revision
							 xputs("Nixie board v0.1\n");
							 break;
     424:	34 c0       	rjmp	.+104    	; 0x48e <execute_single_command+0x37e>
					 case 1: // List all I2C devices
					         i2c_scan();
     426:	0e 94 35 03 	call	0x66a	; 0x66a <i2c_scan>
  Returns  : [NO_ERR, ERR_CMD, ERR_NUM, ERR_I2C] or ack. value for command
  ---------------------------------------------------------------------------*/
uint8_t execute_single_command(char *s)
{
   uint8_t  num  = atoi(&s[1]); // convert number in command (until space is found)
   uint8_t  rval = NO_ERR;
     42a:	80 e0       	ldi	r24, 0x00	; 0
					 case 0: // revision
							 xputs("Nixie board v0.1\n");
							 break;
					 case 1: // List all I2C devices
					         i2c_scan();
							 break;
     42c:	30 c0       	rjmp	.+96     	; 0x48e <execute_single_command+0x37e>
					 case 2: // List all tasks
							 list_all_tasks(); 
     42e:	0e 94 a9 10 	call	0x2152	; 0x2152 <list_all_tasks>
  Returns  : [NO_ERR, ERR_CMD, ERR_NUM, ERR_I2C] or ack. value for command
  ---------------------------------------------------------------------------*/
uint8_t execute_single_command(char *s)
{
   uint8_t  num  = atoi(&s[1]); // convert number in command (until space is found)
   uint8_t  rval = NO_ERR;
     432:	80 e0       	ldi	r24, 0x00	; 0
					 case 1: // List all I2C devices
					         i2c_scan();
							 break;
					 case 2: // List all tasks
							 list_all_tasks(); 
							 break;	
     434:	2c c0       	rjmp	.+88     	; 0x48e <execute_single_command+0x37e>
							  break;
				 } // switch
				 break;

	   default: rval = ERR_CMD;
				sprintf(s2,"ERR.CMD[%s]\n",s);
     436:	00 d0       	rcall	.+0      	; 0x438 <execute_single_command+0x328>
     438:	00 d0       	rcall	.+0      	; 0x43a <execute_single_command+0x32a>
     43a:	00 d0       	rcall	.+0      	; 0x43c <execute_single_command+0x32c>
     43c:	ed b7       	in	r30, 0x3d	; 61
     43e:	fe b7       	in	r31, 0x3e	; 62
     440:	31 96       	adiw	r30, 0x01	; 1
     442:	7e 01       	movw	r14, r28
     444:	08 94       	sec
     446:	e1 1c       	adc	r14, r1
     448:	f1 1c       	adc	r15, r1
     44a:	ad b7       	in	r26, 0x3d	; 61
     44c:	be b7       	in	r27, 0x3e	; 62
     44e:	12 96       	adiw	r26, 0x02	; 2
     450:	fc 92       	st	X, r15
     452:	ee 92       	st	-X, r14
     454:	11 97       	sbiw	r26, 0x01	; 1
     456:	81 eb       	ldi	r24, 0xB1	; 177
     458:	91 e0       	ldi	r25, 0x01	; 1
     45a:	93 83       	std	Z+3, r25	; 0x03
     45c:	82 83       	std	Z+2, r24	; 0x02
     45e:	15 83       	std	Z+5, r17	; 0x05
     460:	04 83       	std	Z+4, r16	; 0x04
     462:	0e 94 e5 15 	call	0x2bca	; 0x2bca <sprintf>
				xputs(s2);
     466:	ed b7       	in	r30, 0x3d	; 61
     468:	fe b7       	in	r31, 0x3e	; 62
     46a:	36 96       	adiw	r30, 0x06	; 6
     46c:	0f b6       	in	r0, 0x3f	; 63
     46e:	f8 94       	cli
     470:	fe bf       	out	0x3e, r31	; 62
     472:	0f be       	out	0x3f, r0	; 63
     474:	ed bf       	out	0x3d, r30	; 61
     476:	c7 01       	movw	r24, r14
     478:	0e 94 c2 12 	call	0x2584	; 0x2584 <xputs>
					 default: rval = ERR_NUM;
							  break;
				 } // switch
				 break;

	   default: rval = ERR_CMD;
     47c:	81 e0       	ldi	r24, 0x01	; 1
				sprintf(s2,"ERR.CMD[%s]\n",s);
				xputs(s2);
	            break;
     47e:	07 c0       	rjmp	.+14     	; 0x48e <execute_single_command+0x37e>
								 case 1: xputs("25 °C\n"); break;
								 case 2: xputs("50 °C\n"); break;
								 case 3: xputs("75 °C\n"); break;
							 } // switch
							 break;
					 default: rval = ERR_NUM;
     480:	82 e0       	ldi	r24, 0x02	; 2
     482:	05 c0       	rjmp	.+10     	; 0x48e <execute_single_command+0x37e>
  Returns  : [NO_ERR, ERR_CMD, ERR_NUM, ERR_I2C] or ack. value for command
  ---------------------------------------------------------------------------*/
uint8_t execute_single_command(char *s)
{
   uint8_t  num  = atoi(&s[1]); // convert number in command (until space is found)
   uint8_t  rval = NO_ERR;
     484:	80 e0       	ldi	r24, 0x00	; 0
     486:	03 c0       	rjmp	.+6      	; 0x48e <execute_single_command+0x37e>
				 } // switch
				 break;
				 
	   case 'l': // Set RGB LED [0..7]
				 if (num > 7) 
				      rval       = ERR_NUM;
     488:	82 e0       	ldi	r24, 0x02	; 2
     48a:	01 c0       	rjmp	.+2      	; 0x48e <execute_single_command+0x37e>
					         i2c_scan();
							 break;
					 case 2: // List all tasks
							 list_all_tasks(); 
							 break;	
					 default: rval = ERR_NUM;
     48c:	82 e0       	ldi	r24, 0x02	; 2
				sprintf(s2,"ERR.CMD[%s]\n",s);
				xputs(s2);
	            break;
   } // switch
   return rval;	
     48e:	e0 96       	adiw	r28, 0x30	; 48
     490:	0f b6       	in	r0, 0x3f	; 63
     492:	f8 94       	cli
     494:	de bf       	out	0x3e, r29	; 62
     496:	0f be       	out	0x3f, r0	; 63
     498:	cd bf       	out	0x3d, r28	; 61
     49a:	df 91       	pop	r29
     49c:	cf 91       	pop	r28
     49e:	1f 91       	pop	r17
     4a0:	0f 91       	pop	r16
     4a2:	ff 90       	pop	r15
     4a4:	ef 90       	pop	r14
     4a6:	df 90       	pop	r13
     4a8:	cf 90       	pop	r12
     4aa:	08 95       	ret

000004ac <rs232_command_handler>:
uint8_t rs232_command_handler(void)
{
  char    ch;
  static uint8_t cmd_rcvd = 0;
  
  if (!cmd_rcvd && usart_kbhit())
     4ac:	80 91 05 03 	lds	r24, 0x0305
     4b0:	88 23       	and	r24, r24
     4b2:	49 f5       	brne	.+82     	; 0x506 <rs232_command_handler+0x5a>
     4b4:	0e 94 d1 12 	call	0x25a2	; 0x25a2 <usart_kbhit>
     4b8:	88 23       	and	r24, r24
     4ba:	09 f1       	breq	.+66     	; 0x4fe <rs232_command_handler+0x52>
  { // A new character has been received
    ch = tolower(usart_getc()); // get character as lowercase
     4bc:	0e 94 da 12 	call	0x25b4	; 0x25b4 <usart_getc>
     4c0:	90 e0       	ldi	r25, 0x00	; 0
     4c2:	0e 94 91 15 	call	0x2b22	; 0x2b22 <tolower>
	switch (ch)
     4c6:	8a 30       	cpi	r24, 0x0A	; 10
     4c8:	19 f0       	breq	.+6      	; 0x4d0 <rs232_command_handler+0x24>
     4ca:	8d 30       	cpi	r24, 0x0D	; 13
     4cc:	71 f4       	brne	.+28     	; 0x4ea <rs232_command_handler+0x3e>
     4ce:	17 c0       	rjmp	.+46     	; 0x4fe <rs232_command_handler+0x52>
	{
		case '\r': break;
		case '\n': cmd_rcvd  = 1;
     4d0:	81 e0       	ldi	r24, 0x01	; 1
     4d2:	80 93 05 03 	sts	0x0305, r24
		           rs232_inbuf[rs232_ptr] = '\0';
     4d6:	80 91 04 03 	lds	r24, 0x0304
     4da:	ed e1       	ldi	r30, 0x1D	; 29
     4dc:	f3 e0       	ldi	r31, 0x03	; 3
     4de:	e8 0f       	add	r30, r24
     4e0:	f1 1d       	adc	r31, r1
     4e2:	10 82       	st	Z, r1
		           rs232_ptr = 0;
     4e4:	10 92 04 03 	sts	0x0304, r1
				   break;
     4e8:	0a c0       	rjmp	.+20     	; 0x4fe <rs232_command_handler+0x52>
		default  : rs232_inbuf[rs232_ptr++] = ch;
     4ea:	90 91 04 03 	lds	r25, 0x0304
     4ee:	ed e1       	ldi	r30, 0x1D	; 29
     4f0:	f3 e0       	ldi	r31, 0x03	; 3
     4f2:	e9 0f       	add	r30, r25
     4f4:	f1 1d       	adc	r31, r1
     4f6:	80 83       	st	Z, r24
     4f8:	9f 5f       	subi	r25, 0xFF	; 255
     4fa:	90 93 04 03 	sts	0x0304, r25
				   break;
	} // switch
  } // if
  if (cmd_rcvd)
     4fe:	80 91 05 03 	lds	r24, 0x0305
     502:	88 23       	and	r24, r24
     504:	39 f0       	breq	.+14     	; 0x514 <rs232_command_handler+0x68>
  {
	  cmd_rcvd = 0;
     506:	10 92 05 03 	sts	0x0305, r1
	  return execute_single_command(rs232_inbuf);
     50a:	8d e1       	ldi	r24, 0x1D	; 29
     50c:	93 e0       	ldi	r25, 0x03	; 3
     50e:	0e 94 88 00 	call	0x110	; 0x110 <execute_single_command>
     512:	08 95       	ret
  } // if
  else return NO_ERR;
     514:	80 e0       	ldi	r24, 0x00	; 0
} // rs232_command_handler()
     516:	08 95       	ret

00000518 <i2c_init>:
*************************************************************************/
void i2c_init(uint8_t clk)
{
  /* initialize TWI clock: TWPS = 0x01 => prescaler = 4 */
  
  if (clk == SCL_CLK_400KHZ) TWSR = 0x00; /* pre-scaler = 1 */
     518:	8c 30       	cpi	r24, 0x0C	; 12
     51a:	19 f4       	brne	.+6      	; 0x522 <i2c_init+0xa>
     51c:	10 92 b9 00 	sts	0x00B9, r1
     520:	03 c0       	rjmp	.+6      	; 0x528 <i2c_init+0x10>
  else                       TWSR = 0x01; /* pre-scaler = 4 */
     522:	91 e0       	ldi	r25, 0x01	; 1
     524:	90 93 b9 00 	sts	0x00B9, r25
  TWBR = clk;  /* must be > 10 for stable operation */
     528:	80 93 b8 00 	sts	0x00B8, r24
} /* i2c_init() */
     52c:	08 95       	ret

0000052e <i2c_start>:
  Issues a start condition and sends address and transfer direction.
  return:  I2C_ACK : device accessible
           I2C_NACK: failed to access device
*************************************************************************/
enum i2c_acks i2c_start(unsigned char address)
{
     52e:	0f 93       	push	r16
     530:	1f 93       	push	r17
     532:	cf 93       	push	r28
     534:	df 93       	push	r29
     536:	18 2f       	mov	r17, r24
    uint8_t   twst;
    uint8_t   retries = 0;

	// send START condition
	TWCR = (1<<TWINT) | (1<<TWSTA) | (1<<TWEN);
     538:	ec eb       	ldi	r30, 0xBC	; 188
     53a:	f0 e0       	ldi	r31, 0x00	; 0
     53c:	84 ea       	ldi	r24, 0xA4	; 164
     53e:	80 83       	st	Z, r24

	// wait until transmission completed
	while ((!(TWCR & (1<<TWINT))) && (retries < I2C_RETRIES))
     540:	80 81       	ld	r24, Z
     542:	88 23       	and	r24, r24
     544:	74 f0       	brlt	.+28     	; 0x562 <i2c_start+0x34>
           I2C_NACK: failed to access device
*************************************************************************/
enum i2c_acks i2c_start(unsigned char address)
{
    uint8_t   twst;
    uint8_t   retries = 0;
     546:	00 e0       	ldi	r16, 0x00	; 0

	// send START condition
	TWCR = (1<<TWINT) | (1<<TWSTA) | (1<<TWEN);

	// wait until transmission completed
	while ((!(TWCR & (1<<TWINT))) && (retries < I2C_RETRIES))
     548:	cc eb       	ldi	r28, 0xBC	; 188
     54a:	d0 e0       	ldi	r29, 0x00	; 0
	{
		delay_msec(1);
     54c:	81 e0       	ldi	r24, 0x01	; 1
     54e:	90 e0       	ldi	r25, 0x00	; 0
     550:	0e 94 5d 0b 	call	0x16ba	; 0x16ba <delay_msec>
		retries++;
     554:	0f 5f       	subi	r16, 0xFF	; 255

	// send START condition
	TWCR = (1<<TWINT) | (1<<TWSTA) | (1<<TWEN);

	// wait until transmission completed
	while ((!(TWCR & (1<<TWINT))) && (retries < I2C_RETRIES))
     556:	88 81       	ld	r24, Y
     558:	88 23       	and	r24, r24
     55a:	24 f0       	brlt	.+8      	; 0x564 <i2c_start+0x36>
     55c:	03 30       	cpi	r16, 0x03	; 3
     55e:	b1 f7       	brne	.-20     	; 0x54c <i2c_start+0x1e>
     560:	01 c0       	rjmp	.+2      	; 0x564 <i2c_start+0x36>
           I2C_NACK: failed to access device
*************************************************************************/
enum i2c_acks i2c_start(unsigned char address)
{
    uint8_t   twst;
    uint8_t   retries = 0;
     562:	00 e0       	ldi	r16, 0x00	; 0
		delay_msec(1);
		retries++;
	} // while	

	// check value of TWI Status Register. Mask pre-scaler bits.
	twst = TW_STATUS & 0xF8;
     564:	80 91 b9 00 	lds	r24, 0x00B9
     568:	88 7f       	andi	r24, 0xF8	; 248
	if (((twst != TW_START) && (twst != TW_REP_START)) || (retries >= I2C_RETRIES)) 
     56a:	88 30       	cpi	r24, 0x08	; 8
     56c:	11 f0       	breq	.+4      	; 0x572 <i2c_start+0x44>
     56e:	80 31       	cpi	r24, 0x10	; 16
     570:	b1 f4       	brne	.+44     	; 0x59e <i2c_start+0x70>
     572:	03 30       	cpi	r16, 0x03	; 3
     574:	b0 f4       	brcc	.+44     	; 0x5a2 <i2c_start+0x74>
		return I2C_NACK;

	// send device address
	TWDR = address;
     576:	10 93 bb 00 	sts	0x00BB, r17
	TWCR = (1<<TWINT) | (1<<TWEN);
     57a:	84 e8       	ldi	r24, 0x84	; 132
     57c:	80 93 bc 00 	sts	0x00BC, r24

	// wail until transmission completed and ACK/NACK has been received
	while(!(TWCR & (1<<TWINT)));
     580:	ec eb       	ldi	r30, 0xBC	; 188
     582:	f0 e0       	ldi	r31, 0x00	; 0
     584:	80 81       	ld	r24, Z
     586:	88 23       	and	r24, r24
     588:	ec f7       	brge	.-6      	; 0x584 <i2c_start+0x56>

	// check value of TWI Status Register. Mask pre-scaler bits.
	twst = TW_STATUS & 0xF8;
     58a:	90 91 b9 00 	lds	r25, 0x00B9
     58e:	98 7f       	andi	r25, 0xF8	; 248
	if ( (twst != TW_MT_SLA_ACK) && (twst != TW_MR_SLA_ACK) ) return I2C_NACK;
     590:	98 31       	cpi	r25, 0x18	; 24
     592:	49 f0       	breq	.+18     	; 0x5a6 <i2c_start+0x78>
/*************************************************************************	
  Issues a start condition and sends address and transfer direction.
  return:  I2C_ACK : device accessible
           I2C_NACK: failed to access device
*************************************************************************/
enum i2c_acks i2c_start(unsigned char address)
     594:	81 e0       	ldi	r24, 0x01	; 1
     596:	90 34       	cpi	r25, 0x40	; 64
     598:	39 f4       	brne	.+14     	; 0x5a8 <i2c_start+0x7a>
     59a:	80 e0       	ldi	r24, 0x00	; 0
     59c:	05 c0       	rjmp	.+10     	; 0x5a8 <i2c_start+0x7a>
	} // while	

	// check value of TWI Status Register. Mask pre-scaler bits.
	twst = TW_STATUS & 0xF8;
	if (((twst != TW_START) && (twst != TW_REP_START)) || (retries >= I2C_RETRIES)) 
		return I2C_NACK;
     59e:	81 e0       	ldi	r24, 0x01	; 1
     5a0:	03 c0       	rjmp	.+6      	; 0x5a8 <i2c_start+0x7a>
     5a2:	81 e0       	ldi	r24, 0x01	; 1
     5a4:	01 c0       	rjmp	.+2      	; 0x5a8 <i2c_start+0x7a>

	// check value of TWI Status Register. Mask pre-scaler bits.
	twst = TW_STATUS & 0xF8;
	if ( (twst != TW_MT_SLA_ACK) && (twst != TW_MR_SLA_ACK) ) return I2C_NACK;

	return I2C_ACK;
     5a6:	80 e0       	ldi	r24, 0x00	; 0
} /* i2c_start() */
     5a8:	df 91       	pop	r29
     5aa:	cf 91       	pop	r28
     5ac:	1f 91       	pop	r17
     5ae:	0f 91       	pop	r16
     5b0:	08 95       	ret

000005b2 <i2c_start_wait>:
 If device is busy, use ACK polling to wait until device is ready
 
 Input:   address and transfer direction of I2C device
*************************************************************************/
void i2c_start_wait(unsigned char address)
{
     5b2:	cf 93       	push	r28
     5b4:	df 93       	push	r29
    uint8_t   twst;

    while ( 1 )
    {
	    // send START condition
	    TWCR = (1<<TWINT) | (1<<TWSTA) | (1<<TWEN);
     5b6:	ec eb       	ldi	r30, 0xBC	; 188
     5b8:	f0 e0       	ldi	r31, 0x00	; 0
     5ba:	24 ea       	ldi	r18, 0xA4	; 164
    
    	// wait until transmission completed
    	while(!(TWCR & (1<<TWINT)));
    
    	// check value of TWI Status Register. Mask pre-scaler bits.
    	twst = TW_STATUS & 0xF8;
     5bc:	a9 eb       	ldi	r26, 0xB9	; 185
     5be:	b0 e0       	ldi	r27, 0x00	; 0
    	if ( (twst != TW_START) && (twst != TW_REP_START)) continue;
    
    	// send device address
    	TWDR = address;
     5c0:	cb eb       	ldi	r28, 0xBB	; 187
     5c2:	d0 e0       	ldi	r29, 0x00	; 0
    	TWCR = (1<<TWINT) | (1<<TWEN);
     5c4:	34 e8       	ldi	r19, 0x84	; 132
    	// check value of TWI Status Register. Mask pre-scaler bits.
    	twst = TW_STATUS & 0xF8;
    	if ( (twst == TW_MT_SLA_NACK )||(twst ==TW_MR_DATA_NACK) ) 
    	{    	    
    	    /* device busy, send stop condition to terminate write operation */
	        TWCR = (1<<TWINT) | (1<<TWEN) | (1<<TWSTO);
     5c6:	44 e9       	ldi	r20, 0x94	; 148
    uint8_t   twst;

    while ( 1 )
    {
	    // send START condition
	    TWCR = (1<<TWINT) | (1<<TWSTA) | (1<<TWEN);
     5c8:	20 83       	st	Z, r18
    
    	// wait until transmission completed
    	while(!(TWCR & (1<<TWINT)));
     5ca:	90 81       	ld	r25, Z
     5cc:	99 23       	and	r25, r25
     5ce:	ec f7       	brge	.-6      	; 0x5ca <i2c_start_wait+0x18>
    
    	// check value of TWI Status Register. Mask pre-scaler bits.
    	twst = TW_STATUS & 0xF8;
     5d0:	9c 91       	ld	r25, X
     5d2:	98 7f       	andi	r25, 0xF8	; 248
    	if ( (twst != TW_START) && (twst != TW_REP_START)) continue;
     5d4:	98 30       	cpi	r25, 0x08	; 8
     5d6:	11 f0       	breq	.+4      	; 0x5dc <i2c_start_wait+0x2a>
     5d8:	90 31       	cpi	r25, 0x10	; 16
     5da:	b1 f7       	brne	.-20     	; 0x5c8 <i2c_start_wait+0x16>
    
    	// send device address
    	TWDR = address;
     5dc:	88 83       	st	Y, r24
    	TWCR = (1<<TWINT) | (1<<TWEN);
     5de:	30 83       	st	Z, r19
    
    	// wail until transmission completed
    	while(!(TWCR & (1<<TWINT)));
     5e0:	90 81       	ld	r25, Z
     5e2:	99 23       	and	r25, r25
     5e4:	ec f7       	brge	.-6      	; 0x5e0 <i2c_start_wait+0x2e>
    
    	// check value of TWI Status Register. Mask pre-scaler bits.
    	twst = TW_STATUS & 0xF8;
     5e6:	9c 91       	ld	r25, X
     5e8:	98 7f       	andi	r25, 0xF8	; 248
    	if ( (twst == TW_MT_SLA_NACK )||(twst ==TW_MR_DATA_NACK) ) 
     5ea:	90 32       	cpi	r25, 0x20	; 32
     5ec:	11 f0       	breq	.+4      	; 0x5f2 <i2c_start_wait+0x40>
     5ee:	98 35       	cpi	r25, 0x58	; 88
     5f0:	29 f4       	brne	.+10     	; 0x5fc <i2c_start_wait+0x4a>
    	{    	    
    	    /* device busy, send stop condition to terminate write operation */
	        TWCR = (1<<TWINT) | (1<<TWEN) | (1<<TWSTO);
     5f2:	40 83       	st	Z, r20
	        
	        // wait until stop condition is executed and bus released
	        while(TWCR & (1<<TWSTO));
     5f4:	90 81       	ld	r25, Z
     5f6:	94 fd       	sbrc	r25, 4
     5f8:	fd cf       	rjmp	.-6      	; 0x5f4 <i2c_start_wait+0x42>
     5fa:	e6 cf       	rjmp	.-52     	; 0x5c8 <i2c_start_wait+0x16>
    	    continue;
    	} // if
    	//if( twst != TW_MT_SLA_ACK) return 1;
    	break;
     } // while
} /* i2c_start_wait() */
     5fc:	df 91       	pop	r29
     5fe:	cf 91       	pop	r28
     600:	08 95       	ret

00000602 <i2c_rep_start>:
 Return:  I2C_ACK : device accessible
          I2C_NACK: failed to access device
*************************************************************************/
enum i2c_acks i2c_rep_start(unsigned char address)
{
    return i2c_start( address );
     602:	0e 94 97 02 	call	0x52e	; 0x52e <i2c_start>
} /* i2c_rep_start() */
     606:	08 95       	ret

00000608 <i2c_stop>:
 Terminates the data transfer and releases the I2C bus
*************************************************************************/
void i2c_stop(void)
{
    /* send stop condition */
	TWCR = (1<<TWINT) | (1<<TWEN) | (1<<TWSTO);
     608:	84 e9       	ldi	r24, 0x94	; 148
     60a:	80 93 bc 00 	sts	0x00BC, r24
	
	// wait until stop condition is executed and bus released
	while(TWCR & (1<<TWSTO));
     60e:	ec eb       	ldi	r30, 0xBC	; 188
     610:	f0 e0       	ldi	r31, 0x00	; 0
     612:	80 81       	ld	r24, Z
     614:	84 fd       	sbrc	r24, 4
     616:	fd cf       	rjmp	.-6      	; 0x612 <i2c_stop+0xa>
} /* i2c_stop() */
     618:	08 95       	ret

0000061a <i2c_write>:
enum i2c_acks i2c_write( unsigned char data )
{	
    uint8_t   twst;
    
	// send data to the previously addressed device
	TWDR = data;
     61a:	80 93 bb 00 	sts	0x00BB, r24
	TWCR = (1<<TWINT) | (1<<TWEN);
     61e:	84 e8       	ldi	r24, 0x84	; 132
     620:	80 93 bc 00 	sts	0x00BC, r24

	// wait until transmission completed
	while(!(TWCR & (1<<TWINT)));
     624:	ec eb       	ldi	r30, 0xBC	; 188
     626:	f0 e0       	ldi	r31, 0x00	; 0
     628:	80 81       	ld	r24, Z
     62a:	88 23       	and	r24, r24
     62c:	ec f7       	brge	.-6      	; 0x628 <i2c_write+0xe>

	// check value of TWI Status Register. Mask pre-scaler bits
	twst = TW_STATUS & 0xF8;
     62e:	90 91 b9 00 	lds	r25, 0x00B9
     632:	98 7f       	andi	r25, 0xF8	; 248
	if( twst != TW_MT_DATA_ACK) return I2C_NACK;
     634:	81 e0       	ldi	r24, 0x01	; 1
     636:	98 32       	cpi	r25, 0x28	; 40
     638:	09 f4       	brne	.+2      	; 0x63c <i2c_write+0x22>
     63a:	80 e0       	ldi	r24, 0x00	; 0
	return I2C_ACK;
} /* i2c_write() */
     63c:	08 95       	ret

0000063e <i2c_readAck>:
 
 Return:  byte read from I2C device
*************************************************************************/
unsigned char i2c_readAck(void)
{
	TWCR = (1<<TWINT) | (1<<TWEN) | (1<<TWEA);
     63e:	84 ec       	ldi	r24, 0xC4	; 196
     640:	80 93 bc 00 	sts	0x00BC, r24
	while(!(TWCR & (1<<TWINT)));    
     644:	ec eb       	ldi	r30, 0xBC	; 188
     646:	f0 e0       	ldi	r31, 0x00	; 0
     648:	80 81       	ld	r24, Z
     64a:	88 23       	and	r24, r24
     64c:	ec f7       	brge	.-6      	; 0x648 <i2c_readAck+0xa>

    return TWDR;
     64e:	80 91 bb 00 	lds	r24, 0x00BB
} /* i2c_readAck() */
     652:	08 95       	ret

00000654 <i2c_readNak>:
 
 Return:  byte read from I2C device
*************************************************************************/
unsigned char i2c_readNak(void)
{
	TWCR = (1<<TWINT) | (1<<TWEN);
     654:	84 e8       	ldi	r24, 0x84	; 132
     656:	80 93 bc 00 	sts	0x00BC, r24
	while(!(TWCR & (1<<TWINT)));
     65a:	ec eb       	ldi	r30, 0xBC	; 188
     65c:	f0 e0       	ldi	r31, 0x00	; 0
     65e:	80 81       	ld	r24, Z
     660:	88 23       	and	r24, r24
     662:	ec f7       	brge	.-6      	; 0x65e <i2c_readNak+0xa>
	
    return TWDR;
     664:	80 91 bb 00 	lds	r24, 0x00BB
} /* i2c_readNak() */
     668:	08 95       	ret

0000066a <i2c_scan>:
  Purpose  : Scan all devices on the I2C bus
  Variables: -
 Returns  : -
  ---------------------------------------------------------------------------*/
void i2c_scan(void)
{
     66a:	af 92       	push	r10
     66c:	bf 92       	push	r11
     66e:	cf 92       	push	r12
     670:	df 92       	push	r13
     672:	ff 92       	push	r15
     674:	0f 93       	push	r16
     676:	1f 93       	push	r17
     678:	cf 93       	push	r28
     67a:	df 93       	push	r29
     67c:	cd b7       	in	r28, 0x3d	; 61
     67e:	de b7       	in	r29, 0x3e	; 62
     680:	e7 97       	sbiw	r28, 0x37	; 55
     682:	0f b6       	in	r0, 0x3f	; 63
     684:	f8 94       	cli
     686:	de bf       	out	0x3e, r29	; 62
     688:	0f be       	out	0x3f, r0	; 63
     68a:	cd bf       	out	0x3d, r28	; 61
	char    s[50]; // needed for printing to serial terminal
	uint8_t x = 0;
	int     i;     // Leave this as an int!
	const uint8_t none[] = "none";
     68c:	de 01       	movw	r26, r28
     68e:	d3 96       	adiw	r26, 0x33	; 51
     690:	e2 ed       	ldi	r30, 0xD2	; 210
     692:	f1 e0       	ldi	r31, 0x01	; 1
     694:	85 e0       	ldi	r24, 0x05	; 5
     696:	01 90       	ld	r0, Z+
     698:	0d 92       	st	X+, r0
     69a:	81 50       	subi	r24, 0x01	; 1
     69c:	e1 f7       	brne	.-8      	; 0x696 <i2c_scan+0x2c>
	
	xputs("I2C-scan: ");
     69e:	8e eb       	ldi	r24, 0xBE	; 190
     6a0:	91 e0       	ldi	r25, 0x01	; 1
     6a2:	0e 94 c2 12 	call	0x2584	; 0x2584 <xputs>
	for (i = 0x02; i < 0xff; i+=2)
     6a6:	02 e0       	ldi	r16, 0x02	; 2
     6a8:	10 e0       	ldi	r17, 0x00	; 0
 Returns  : -
  ---------------------------------------------------------------------------*/
void i2c_scan(void)
{
	char    s[50]; // needed for printing to serial terminal
	uint8_t x = 0;
     6aa:	ff 24       	eor	r15, r15
	xputs("I2C-scan: ");
	for (i = 0x02; i < 0xff; i+=2)
	{
		if (i2c_start(i) == I2C_ACK)
		{
			sprintf(s,"0x%0x ",i);
     6ac:	6e 01       	movw	r12, r28
     6ae:	08 94       	sec
     6b0:	c1 1c       	adc	r12, r1
     6b2:	d1 1c       	adc	r13, r1
     6b4:	0f 2e       	mov	r0, r31
     6b6:	f9 ec       	ldi	r31, 0xC9	; 201
     6b8:	af 2e       	mov	r10, r31
     6ba:	f1 e0       	ldi	r31, 0x01	; 1
     6bc:	bf 2e       	mov	r11, r31
     6be:	f0 2d       	mov	r31, r0
	const uint8_t none[] = "none";
	
	xputs("I2C-scan: ");
	for (i = 0x02; i < 0xff; i+=2)
	{
		if (i2c_start(i) == I2C_ACK)
     6c0:	80 2f       	mov	r24, r16
     6c2:	0e 94 97 02 	call	0x52e	; 0x52e <i2c_start>
     6c6:	88 23       	and	r24, r24
     6c8:	f1 f4       	brne	.+60     	; 0x706 <i2c_scan+0x9c>
		{
			sprintf(s,"0x%0x ",i);
     6ca:	00 d0       	rcall	.+0      	; 0x6cc <i2c_scan+0x62>
     6cc:	00 d0       	rcall	.+0      	; 0x6ce <i2c_scan+0x64>
     6ce:	00 d0       	rcall	.+0      	; 0x6d0 <i2c_scan+0x66>
     6d0:	ed b7       	in	r30, 0x3d	; 61
     6d2:	fe b7       	in	r31, 0x3e	; 62
     6d4:	31 96       	adiw	r30, 0x01	; 1
     6d6:	ad b7       	in	r26, 0x3d	; 61
     6d8:	be b7       	in	r27, 0x3e	; 62
     6da:	12 96       	adiw	r26, 0x02	; 2
     6dc:	dc 92       	st	X, r13
     6de:	ce 92       	st	-X, r12
     6e0:	11 97       	sbiw	r26, 0x01	; 1
     6e2:	b3 82       	std	Z+3, r11	; 0x03
     6e4:	a2 82       	std	Z+2, r10	; 0x02
     6e6:	15 83       	std	Z+5, r17	; 0x05
     6e8:	04 83       	std	Z+4, r16	; 0x04
     6ea:	0e 94 e5 15 	call	0x2bca	; 0x2bca <sprintf>
		  	xputs(s);
     6ee:	8d b7       	in	r24, 0x3d	; 61
     6f0:	9e b7       	in	r25, 0x3e	; 62
     6f2:	06 96       	adiw	r24, 0x06	; 6
     6f4:	0f b6       	in	r0, 0x3f	; 63
     6f6:	f8 94       	cli
     6f8:	9e bf       	out	0x3e, r25	; 62
     6fa:	0f be       	out	0x3f, r0	; 63
     6fc:	8d bf       	out	0x3d, r24	; 61
     6fe:	c6 01       	movw	r24, r12
     700:	0e 94 c2 12 	call	0x2584	; 0x2584 <xputs>
			x++;
     704:	f3 94       	inc	r15
		} // if
		i2c_stop();
     706:	0e 94 04 03 	call	0x608	; 0x608 <i2c_stop>
	uint8_t x = 0;
	int     i;     // Leave this as an int!
	const uint8_t none[] = "none";
	
	xputs("I2C-scan: ");
	for (i = 0x02; i < 0xff; i+=2)
     70a:	0e 5f       	subi	r16, 0xFE	; 254
     70c:	1f 4f       	sbci	r17, 0xFF	; 255
     70e:	91 e0       	ldi	r25, 0x01	; 1
     710:	00 30       	cpi	r16, 0x00	; 0
     712:	19 07       	cpc	r17, r25
     714:	a9 f6       	brne	.-86     	; 0x6c0 <i2c_scan+0x56>
		  	xputs(s);
			x++;
		} // if
		i2c_stop();
	} // for
	if (!x) 
     716:	ff 20       	and	r15, r15
     718:	21 f4       	brne	.+8      	; 0x722 <i2c_scan+0xb8>
	{
	  	xputs(none);
     71a:	ce 01       	movw	r24, r28
     71c:	c3 96       	adiw	r24, 0x33	; 51
     71e:	0e 94 c2 12 	call	0x2584	; 0x2584 <xputs>
	} // else	
  	xputs("\n");
     722:	80 ed       	ldi	r24, 0xD0	; 208
     724:	91 e0       	ldi	r25, 0x01	; 1
     726:	0e 94 c2 12 	call	0x2584	; 0x2584 <xputs>
} // i2c_scan()
     72a:	e7 96       	adiw	r28, 0x37	; 55
     72c:	0f b6       	in	r0, 0x3f	; 63
     72e:	f8 94       	cli
     730:	de bf       	out	0x3e, r29	; 62
     732:	0f be       	out	0x3f, r0	; 63
     734:	cd bf       	out	0x3d, r28	; 61
     736:	df 91       	pop	r29
     738:	cf 91       	pop	r28
     73a:	1f 91       	pop	r17
     73c:	0f 91       	pop	r16
     73e:	ff 90       	pop	r15
     740:	df 90       	pop	r13
     742:	cf 90       	pop	r12
     744:	bf 90       	pop	r11
     746:	af 90       	pop	r10
     748:	08 95       	ret

0000074a <ds3231_decode>:

uint8_t	ds3231_decode(uint8_t value)
{
	uint8_t decoded = value & 0x7F;
	decoded = (decoded & 0x0F) + 10 * ((decoded & (0xF0)) >> 4);
     74a:	28 2f       	mov	r18, r24
     74c:	2f 70       	andi	r18, 0x0F	; 15
     74e:	98 2f       	mov	r25, r24
     750:	96 95       	lsr	r25
     752:	96 95       	lsr	r25
     754:	96 95       	lsr	r25
     756:	9e 70       	andi	r25, 0x0E	; 14
     758:	89 2f       	mov	r24, r25
     75a:	88 0f       	add	r24, r24
     75c:	88 0f       	add	r24, r24
     75e:	98 0f       	add	r25, r24
	return decoded;
} // ds3231_decode()
     760:	89 2f       	mov	r24, r25
     762:	82 0f       	add	r24, r18
     764:	08 95       	ret

00000766 <ds3231_decodeH>:

uint8_t ds3231_decodeH(uint8_t value)
{
  if (value & 0x40) // 12 hour format
     766:	28 2f       	mov	r18, r24
     768:	30 e0       	ldi	r19, 0x00	; 0
     76a:	86 ff       	sbrs	r24, 6
     76c:	08 c0       	rjmp	.+16     	; 0x77e <ds3231_decodeH+0x18>
    value = (value & 0x0F) + ((value & 0x20) ? 10 : 0);
     76e:	8f 70       	andi	r24, 0x0F	; 15
     770:	25 ff       	sbrs	r18, 5
     772:	02 c0       	rjmp	.+4      	; 0x778 <ds3231_decodeH+0x12>
     774:	2a e0       	ldi	r18, 0x0A	; 10
     776:	01 c0       	rjmp	.+2      	; 0x77a <ds3231_decodeH+0x14>
     778:	20 e0       	ldi	r18, 0x00	; 0
     77a:	82 0f       	add	r24, r18
     77c:	08 95       	ret
  else // 24 hour format
    value = (value & 0x0F) + (5 * ((value & 0x30) >> 3));
     77e:	8f 70       	andi	r24, 0x0F	; 15
     780:	36 95       	lsr	r19
     782:	27 95       	ror	r18
     784:	36 95       	lsr	r19
     786:	27 95       	ror	r18
     788:	36 95       	lsr	r19
     78a:	27 95       	ror	r18
     78c:	26 70       	andi	r18, 0x06	; 6
     78e:	92 2f       	mov	r25, r18
     790:	99 0f       	add	r25, r25
     792:	99 0f       	add	r25, r25
     794:	29 0f       	add	r18, r25
     796:	82 0f       	add	r24, r18
  return value;
} // ds3231_decodeH()
     798:	08 95       	ret

0000079a <ds3231_decodeY>:

uint8_t	ds3231_decodeY(uint8_t value)
{
	uint8_t decoded = (value & 0x0F) + 10 * ((value & 0xF0) >> 4);
     79a:	98 2f       	mov	r25, r24
     79c:	92 95       	swap	r25
     79e:	9f 70       	andi	r25, 0x0F	; 15
     7a0:	99 0f       	add	r25, r25
     7a2:	29 2f       	mov	r18, r25
     7a4:	22 0f       	add	r18, r18
     7a6:	22 0f       	add	r18, r18
     7a8:	92 0f       	add	r25, r18
     7aa:	8f 70       	andi	r24, 0x0F	; 15
	return decoded;
} // ds3231_decodeY()
     7ac:	89 0f       	add	r24, r25
     7ae:	08 95       	ret

000007b0 <ds3231_encode>:

uint8_t ds3231_encode(uint8_t value)
{
	uint8_t encoded = ((value / 10) << 4) + (value % 10);
     7b0:	6a e0       	ldi	r22, 0x0A	; 10
     7b2:	0e 94 03 15 	call	0x2a06	; 0x2a06 <__udivmodqi4>
     7b6:	82 95       	swap	r24
     7b8:	80 7f       	andi	r24, 0xF0	; 240
	return encoded;
} // ds3231_encode()
     7ba:	89 0f       	add	r24, r25
     7bc:	08 95       	ret

000007be <ds3231_read_register>:

bool ds3231_read_register(uint8_t reg, uint8_t *value)
{
     7be:	0f 93       	push	r16
     7c0:	1f 93       	push	r17
     7c2:	cf 93       	push	r28
     7c4:	df 93       	push	r29
     7c6:	08 2f       	mov	r16, r24
     7c8:	eb 01       	movw	r28, r22
	bool err;

	err = (i2c_start(DS3231_ADR | I2C_WRITE) == I2C_NACK); // generate I2C start + output address to I2C bus
     7ca:	80 ed       	ldi	r24, 0xD0	; 208
     7cc:	0e 94 97 02 	call	0x52e	; 0x52e <i2c_start>
     7d0:	11 e0       	ldi	r17, 0x01	; 1
     7d2:	81 30       	cpi	r24, 0x01	; 1
     7d4:	09 f0       	breq	.+2      	; 0x7d8 <ds3231_read_register+0x1a>
     7d6:	10 e0       	ldi	r17, 0x00	; 0
	if (!err) err = (i2c_write(reg) == I2C_NACK);          // write register address to read from
     7d8:	11 23       	and	r17, r17
     7da:	a9 f4       	brne	.+42     	; 0x806 <ds3231_read_register+0x48>
     7dc:	80 2f       	mov	r24, r16
     7de:	0e 94 0d 03 	call	0x61a	; 0x61a <i2c_write>
     7e2:	11 e0       	ldi	r17, 0x01	; 1
     7e4:	81 30       	cpi	r24, 0x01	; 1
     7e6:	09 f0       	breq	.+2      	; 0x7ea <ds3231_read_register+0x2c>
     7e8:	10 e0       	ldi	r17, 0x00	; 0
	if (!err) err = (i2c_rep_start(DS3231_ADR | I2C_READ) == I2C_NACK);
     7ea:	11 23       	and	r17, r17
     7ec:	61 f4       	brne	.+24     	; 0x806 <ds3231_read_register+0x48>
     7ee:	81 ed       	ldi	r24, 0xD1	; 209
     7f0:	0e 94 01 03 	call	0x602	; 0x602 <i2c_rep_start>
     7f4:	11 e0       	ldi	r17, 0x01	; 1
     7f6:	81 30       	cpi	r24, 0x01	; 1
     7f8:	09 f0       	breq	.+2      	; 0x7fc <ds3231_read_register+0x3e>
     7fa:	10 e0       	ldi	r17, 0x00	; 0
	if (!err) *value = i2c_readNak(); // Read register, generate I2C stop condition
     7fc:	11 23       	and	r17, r17
     7fe:	19 f4       	brne	.+6      	; 0x806 <ds3231_read_register+0x48>
     800:	0e 94 2a 03 	call	0x654	; 0x654 <i2c_readNak>
     804:	88 83       	st	Y, r24
	i2c_stop(); // close I2C bus
     806:	0e 94 04 03 	call	0x608	; 0x608 <i2c_stop>
	return err;
} // ds3231_read_register()
     80a:	81 2f       	mov	r24, r17
     80c:	df 91       	pop	r29
     80e:	cf 91       	pop	r28
     810:	1f 91       	pop	r17
     812:	0f 91       	pop	r16
     814:	08 95       	ret

00000816 <ds3231_write_register>:
 
bool ds3231_write_register(uint8_t reg, uint8_t value)
{
     816:	1f 93       	push	r17
     818:	cf 93       	push	r28
     81a:	df 93       	push	r29
     81c:	18 2f       	mov	r17, r24
     81e:	d6 2f       	mov	r29, r22
	bool err;

	err = (i2c_start(DS3231_ADR | I2C_WRITE) == I2C_NACK); // generate I2C start + output address to I2C bus
     820:	80 ed       	ldi	r24, 0xD0	; 208
     822:	0e 94 97 02 	call	0x52e	; 0x52e <i2c_start>
     826:	c1 e0       	ldi	r28, 0x01	; 1
     828:	81 30       	cpi	r24, 0x01	; 1
     82a:	09 f0       	breq	.+2      	; 0x82e <ds3231_write_register+0x18>
     82c:	c0 e0       	ldi	r28, 0x00	; 0
	if (!err) err = (i2c_write(reg) == I2C_NACK);          // write register address to write to
     82e:	cc 23       	and	r28, r28
     830:	81 f4       	brne	.+32     	; 0x852 <ds3231_write_register+0x3c>
     832:	81 2f       	mov	r24, r17
     834:	0e 94 0d 03 	call	0x61a	; 0x61a <i2c_write>
     838:	c1 e0       	ldi	r28, 0x01	; 1
     83a:	81 30       	cpi	r24, 0x01	; 1
     83c:	09 f0       	breq	.+2      	; 0x840 <ds3231_write_register+0x2a>
     83e:	c0 e0       	ldi	r28, 0x00	; 0
	if (!err) err = (i2c_write(value) == I2C_NACK);        // write value into register
     840:	cc 23       	and	r28, r28
     842:	39 f4       	brne	.+14     	; 0x852 <ds3231_write_register+0x3c>
     844:	8d 2f       	mov	r24, r29
     846:	0e 94 0d 03 	call	0x61a	; 0x61a <i2c_write>
     84a:	c1 e0       	ldi	r28, 0x01	; 1
     84c:	81 30       	cpi	r24, 0x01	; 1
     84e:	09 f0       	breq	.+2      	; 0x852 <ds3231_write_register+0x3c>
     850:	c0 e0       	ldi	r28, 0x00	; 0
	i2c_stop(); // close I2C bus
     852:	0e 94 04 03 	call	0x608	; 0x608 <i2c_stop>
	return err;
} // ds3231_write_register()
     856:	8c 2f       	mov	r24, r28
     858:	df 91       	pop	r29
     85a:	cf 91       	pop	r28
     85c:	1f 91       	pop	r17
     85e:	08 95       	ret

00000860 <ds3231_gettime>:

bool ds3231_gettime(Time *p)
{
     860:	1f 93       	push	r17
     862:	cf 93       	push	r28
     864:	df 93       	push	r29
     866:	ec 01       	movw	r28, r24
	bool err;
	uint8_t reg;

	err = (i2c_start(DS3231_ADR | I2C_WRITE) == I2C_NACK); // generate I2C start + output address to I2C bus
     868:	80 ed       	ldi	r24, 0xD0	; 208
     86a:	0e 94 97 02 	call	0x52e	; 0x52e <i2c_start>
     86e:	11 e0       	ldi	r17, 0x01	; 1
     870:	81 30       	cpi	r24, 0x01	; 1
     872:	09 f0       	breq	.+2      	; 0x876 <ds3231_gettime+0x16>
     874:	10 e0       	ldi	r17, 0x00	; 0
	if (!err) err = (i2c_write(REG_SEC) == I2C_NACK); // seconds register is first register to read
     876:	11 23       	and	r17, r17
     878:	c1 f5       	brne	.+112    	; 0x8ea <ds3231_gettime+0x8a>
     87a:	80 e0       	ldi	r24, 0x00	; 0
     87c:	0e 94 0d 03 	call	0x61a	; 0x61a <i2c_write>
     880:	11 e0       	ldi	r17, 0x01	; 1
     882:	81 30       	cpi	r24, 0x01	; 1
     884:	09 f0       	breq	.+2      	; 0x888 <ds3231_gettime+0x28>
     886:	10 e0       	ldi	r17, 0x00	; 0
	if (!err) err = (i2c_rep_start(DS3231_ADR | I2C_READ) == I2C_NACK);
     888:	11 23       	and	r17, r17
     88a:	79 f5       	brne	.+94     	; 0x8ea <ds3231_gettime+0x8a>
     88c:	81 ed       	ldi	r24, 0xD1	; 209
     88e:	0e 94 01 03 	call	0x602	; 0x602 <i2c_rep_start>
     892:	11 e0       	ldi	r17, 0x01	; 1
     894:	81 30       	cpi	r24, 0x01	; 1
     896:	09 f0       	breq	.+2      	; 0x89a <ds3231_gettime+0x3a>
     898:	10 e0       	ldi	r17, 0x00	; 0
	if (!err)
     89a:	11 23       	and	r17, r17
     89c:	31 f5       	brne	.+76     	; 0x8ea <ds3231_gettime+0x8a>
	{
		reg     = i2c_readAck();      // Read SECONDS register
     89e:	0e 94 1f 03 	call	0x63e	; 0x63e <i2c_readAck>
		p->sec  = ds3231_decode(reg);
     8a2:	0e 94 a5 03 	call	0x74a	; 0x74a <ds3231_decode>
     8a6:	8a 83       	std	Y+2, r24	; 0x02
		reg     = i2c_readAck();      // Read MINUTES register
     8a8:	0e 94 1f 03 	call	0x63e	; 0x63e <i2c_readAck>
		p->min  = ds3231_decode(reg);
     8ac:	0e 94 a5 03 	call	0x74a	; 0x74a <ds3231_decode>
     8b0:	89 83       	std	Y+1, r24	; 0x01
		reg     = i2c_readAck();      // Read HOURS register
     8b2:	0e 94 1f 03 	call	0x63e	; 0x63e <i2c_readAck>
		p->hour = ds3231_decodeH(reg);
     8b6:	0e 94 b3 03 	call	0x766	; 0x766 <ds3231_decodeH>
     8ba:	88 83       	st	Y, r24
		p->dow  = i2c_readAck();      // Read DOW register
     8bc:	0e 94 1f 03 	call	0x63e	; 0x63e <i2c_readAck>
     8c0:	8f 83       	std	Y+7, r24	; 0x07
		reg     = i2c_readAck();      // Read DAY register
     8c2:	0e 94 1f 03 	call	0x63e	; 0x63e <i2c_readAck>
		p->date = ds3231_decode(reg);
     8c6:	0e 94 a5 03 	call	0x74a	; 0x74a <ds3231_decode>
     8ca:	8b 83       	std	Y+3, r24	; 0x03
		reg     = i2c_readAck();      // Read MONTH register
     8cc:	0e 94 1f 03 	call	0x63e	; 0x63e <i2c_readAck>
		p->mon  = ds3231_decode(reg);
     8d0:	0e 94 a5 03 	call	0x74a	; 0x74a <ds3231_decode>
     8d4:	8c 83       	std	Y+4, r24	; 0x04
		reg     = i2c_readNak();      // Read YEAR register, generate I2C stop condition
     8d6:	0e 94 2a 03 	call	0x654	; 0x654 <i2c_readNak>
		p->year = 2000 + ds3231_decodeY(reg);
     8da:	0e 94 cd 03 	call	0x79a	; 0x79a <ds3231_decodeY>
     8de:	90 e0       	ldi	r25, 0x00	; 0
     8e0:	80 53       	subi	r24, 0x30	; 48
     8e2:	98 4f       	sbci	r25, 0xF8	; 248
     8e4:	9e 83       	std	Y+6, r25	; 0x06
     8e6:	8d 83       	std	Y+5, r24	; 0x05
     8e8:	09 c0       	rjmp	.+18     	; 0x8fc <ds3231_gettime+0x9c>
	} // if
	else 
	{   // in case of error
		p->sec = p->min  = p->hour = p->year = 0; 
     8ea:	1e 82       	std	Y+6, r1	; 0x06
     8ec:	1d 82       	std	Y+5, r1	; 0x05
     8ee:	18 82       	st	Y, r1
     8f0:	19 82       	std	Y+1, r1	; 0x01
     8f2:	1a 82       	std	Y+2, r1	; 0x02
		p->dow = p->date = p->mon  = 1;
     8f4:	81 e0       	ldi	r24, 0x01	; 1
     8f6:	8c 83       	std	Y+4, r24	; 0x04
     8f8:	8b 83       	std	Y+3, r24	; 0x03
     8fa:	8f 83       	std	Y+7, r24	; 0x07
	} // else	
	i2c_stop(); // close I2C bus
     8fc:	0e 94 04 03 	call	0x608	; 0x608 <i2c_stop>
	return err;
} // ds3231_gettime()
     900:	81 2f       	mov	r24, r17
     902:	df 91       	pop	r29
     904:	cf 91       	pop	r28
     906:	1f 91       	pop	r17
     908:	08 95       	ret

0000090a <ds3231_settime>:

void ds3231_settime(uint8_t hour, uint8_t min, uint8_t sec)
{
     90a:	cf 93       	push	r28
     90c:	df 93       	push	r29
     90e:	c6 2f       	mov	r28, r22
     910:	d4 2f       	mov	r29, r20
	if (((hour >= 0) && (hour < 24)) && ((min >= 0) && (min < 60)) && ((sec >= 0) && (sec < 60)))
     912:	88 31       	cpi	r24, 0x18	; 24
     914:	c0 f4       	brcc	.+48     	; 0x946 <ds3231_settime+0x3c>
     916:	6c 33       	cpi	r22, 0x3C	; 60
     918:	b0 f4       	brcc	.+44     	; 0x946 <ds3231_settime+0x3c>
     91a:	4c 33       	cpi	r20, 0x3C	; 60
     91c:	a0 f4       	brcc	.+40     	; 0x946 <ds3231_settime+0x3c>
	{
		ds3231_write_register(REG_HOUR, ds3231_encode(hour));
     91e:	0e 94 d8 03 	call	0x7b0	; 0x7b0 <ds3231_encode>
     922:	68 2f       	mov	r22, r24
     924:	82 e0       	ldi	r24, 0x02	; 2
     926:	0e 94 0b 04 	call	0x816	; 0x816 <ds3231_write_register>
		ds3231_write_register(REG_MIN , ds3231_encode(min));
     92a:	8c 2f       	mov	r24, r28
     92c:	0e 94 d8 03 	call	0x7b0	; 0x7b0 <ds3231_encode>
     930:	68 2f       	mov	r22, r24
     932:	81 e0       	ldi	r24, 0x01	; 1
     934:	0e 94 0b 04 	call	0x816	; 0x816 <ds3231_write_register>
		ds3231_write_register(REG_SEC , ds3231_encode(sec));
     938:	8d 2f       	mov	r24, r29
     93a:	0e 94 d8 03 	call	0x7b0	; 0x7b0 <ds3231_encode>
     93e:	68 2f       	mov	r22, r24
     940:	80 e0       	ldi	r24, 0x00	; 0
     942:	0e 94 0b 04 	call	0x816	; 0x816 <ds3231_write_register>
	} // if	
} // ds3231_settime()
     946:	df 91       	pop	r29
     948:	cf 91       	pop	r28
     94a:	08 95       	ret

0000094c <ds3231_calc_dow>:

// 1=Monday, 2=Tuesday, 3=Wednesday, 4=Thursday, 5=Friday, 6=Saturday, 7=Sunday
uint8_t ds3231_calc_dow(uint8_t date, uint8_t mon, uint16_t year)
{
     94c:	4f 92       	push	r4
     94e:	5f 92       	push	r5
     950:	6f 92       	push	r6
     952:	7f 92       	push	r7
     954:	8f 92       	push	r8
     956:	9f 92       	push	r9
     958:	af 92       	push	r10
     95a:	bf 92       	push	r11
     95c:	cf 92       	push	r12
     95e:	df 92       	push	r13
     960:	ef 92       	push	r14
     962:	ff 92       	push	r15
     964:	48 2e       	mov	r4, r24
     966:	4a 01       	movw	r8, r20
	uint32_t JND = date + ((153L * (mon + 12 * ((14 - mon) / 12) - 3) + 2) / 5)
     968:	26 2f       	mov	r18, r22
     96a:	30 e0       	ldi	r19, 0x00	; 0
     96c:	8e e0       	ldi	r24, 0x0E	; 14
     96e:	90 e0       	ldi	r25, 0x00	; 0
     970:	82 1b       	sub	r24, r18
     972:	93 0b       	sbc	r25, r19
     974:	6c e0       	ldi	r22, 0x0C	; 12
     976:	70 e0       	ldi	r23, 0x00	; 0
     978:	0e 94 23 15 	call	0x2a46	; 0x2a46 <__divmodhi4>
	+ (365L * (year + 4800L - ((14 - mon) / 12)))
     97c:	aa 24       	eor	r10, r10
     97e:	bb 24       	eor	r11, r11
     980:	80 ec       	ldi	r24, 0xC0	; 192
     982:	92 e1       	ldi	r25, 0x12	; 18
     984:	a0 e0       	ldi	r26, 0x00	; 0
     986:	b0 e0       	ldi	r27, 0x00	; 0
     988:	88 0e       	add	r8, r24
     98a:	99 1e       	adc	r9, r25
     98c:	aa 1e       	adc	r10, r26
     98e:	bb 1e       	adc	r11, r27
     990:	cb 01       	movw	r24, r22
     992:	aa 27       	eor	r26, r26
     994:	97 fd       	sbrc	r25, 7
     996:	a0 95       	com	r26
     998:	ba 2f       	mov	r27, r26
     99a:	88 1a       	sub	r8, r24
     99c:	99 0a       	sbc	r9, r25
     99e:	aa 0a       	sbc	r10, r26
     9a0:	bb 0a       	sbc	r11, r27
} // ds3231_settime()

// 1=Monday, 2=Tuesday, 3=Wednesday, 4=Thursday, 5=Friday, 6=Saturday, 7=Sunday
uint8_t ds3231_calc_dow(uint8_t date, uint8_t mon, uint16_t year)
{
	uint32_t JND = date + ((153L * (mon + 12 * ((14 - mon) / 12) - 3) + 2) / 5)
     9a2:	cb 01       	movw	r24, r22
     9a4:	88 0f       	add	r24, r24
     9a6:	99 1f       	adc	r25, r25
     9a8:	68 0f       	add	r22, r24
     9aa:	79 1f       	adc	r23, r25
     9ac:	66 0f       	add	r22, r22
     9ae:	77 1f       	adc	r23, r23
     9b0:	66 0f       	add	r22, r22
     9b2:	77 1f       	adc	r23, r23
     9b4:	62 0f       	add	r22, r18
     9b6:	73 1f       	adc	r23, r19
     9b8:	88 27       	eor	r24, r24
     9ba:	77 fd       	sbrc	r23, 7
     9bc:	80 95       	com	r24
     9be:	98 2f       	mov	r25, r24
     9c0:	29 e9       	ldi	r18, 0x99	; 153
     9c2:	30 e0       	ldi	r19, 0x00	; 0
     9c4:	40 e0       	ldi	r20, 0x00	; 0
     9c6:	50 e0       	ldi	r21, 0x00	; 0
     9c8:	0e 94 e4 14 	call	0x29c8	; 0x29c8 <__mulsi3>
     9cc:	69 5c       	subi	r22, 0xC9	; 201
     9ce:	71 40       	sbci	r23, 0x01	; 1
     9d0:	80 40       	sbci	r24, 0x00	; 0
     9d2:	90 40       	sbci	r25, 0x00	; 0
     9d4:	25 e0       	ldi	r18, 0x05	; 5
     9d6:	30 e0       	ldi	r19, 0x00	; 0
     9d8:	40 e0       	ldi	r20, 0x00	; 0
     9da:	50 e0       	ldi	r21, 0x00	; 0
     9dc:	0e 94 58 15 	call	0x2ab0	; 0x2ab0 <__divmodsi4>
     9e0:	69 01       	movw	r12, r18
     9e2:	7a 01       	movw	r14, r20
     9e4:	c4 0c       	add	r12, r4
     9e6:	d1 1c       	adc	r13, r1
     9e8:	e1 1c       	adc	r14, r1
     9ea:	f1 1c       	adc	r15, r1
	+ (365L * (year + 4800L - ((14 - mon) / 12)))
     9ec:	c5 01       	movw	r24, r10
     9ee:	b4 01       	movw	r22, r8
     9f0:	2d e6       	ldi	r18, 0x6D	; 109
     9f2:	31 e0       	ldi	r19, 0x01	; 1
     9f4:	40 e0       	ldi	r20, 0x00	; 0
     9f6:	50 e0       	ldi	r21, 0x00	; 0
     9f8:	0e 94 e4 14 	call	0x29c8	; 0x29c8 <__mulsi3>
     9fc:	2b 01       	movw	r4, r22
     9fe:	3c 01       	movw	r6, r24
     a00:	4c 0c       	add	r4, r12
     a02:	5d 1c       	adc	r5, r13
     a04:	6e 1c       	adc	r6, r14
     a06:	7f 1c       	adc	r7, r15
	+ ((year + 4800L - ((14 - mon) / 12)) / 4)
     a08:	c5 01       	movw	r24, r10
     a0a:	b4 01       	movw	r22, r8
     a0c:	24 e0       	ldi	r18, 0x04	; 4
     a0e:	30 e0       	ldi	r19, 0x00	; 0
     a10:	40 e0       	ldi	r20, 0x00	; 0
     a12:	50 e0       	ldi	r21, 0x00	; 0
     a14:	0e 94 58 15 	call	0x2ab0	; 0x2ab0 <__divmodsi4>
     a18:	69 01       	movw	r12, r18
     a1a:	7a 01       	movw	r14, r20
     a1c:	c4 0c       	add	r12, r4
     a1e:	d5 1c       	adc	r13, r5
     a20:	e6 1c       	adc	r14, r6
     a22:	f7 1c       	adc	r15, r7
	- ((year + 4800L - ((14 - mon) / 12)) / 100)
     a24:	c5 01       	movw	r24, r10
     a26:	b4 01       	movw	r22, r8
     a28:	24 e6       	ldi	r18, 0x64	; 100
     a2a:	30 e0       	ldi	r19, 0x00	; 0
     a2c:	40 e0       	ldi	r20, 0x00	; 0
     a2e:	50 e0       	ldi	r21, 0x00	; 0
     a30:	0e 94 58 15 	call	0x2ab0	; 0x2ab0 <__divmodsi4>
     a34:	c2 1a       	sub	r12, r18
     a36:	d3 0a       	sbc	r13, r19
     a38:	e4 0a       	sbc	r14, r20
     a3a:	f5 0a       	sbc	r15, r21
	+ ((year + 4800L - ((14 - mon) / 12)) / 400)
     a3c:	c5 01       	movw	r24, r10
     a3e:	b4 01       	movw	r22, r8
     a40:	20 e9       	ldi	r18, 0x90	; 144
     a42:	31 e0       	ldi	r19, 0x01	; 1
     a44:	40 e0       	ldi	r20, 0x00	; 0
     a46:	50 e0       	ldi	r21, 0x00	; 0
     a48:	0e 94 58 15 	call	0x2ab0	; 0x2ab0 <__divmodsi4>
     a4c:	c2 0e       	add	r12, r18
     a4e:	d3 1e       	adc	r13, r19
     a50:	e4 1e       	adc	r14, r20
     a52:	f5 1e       	adc	r15, r21
	- 32044L;
     a54:	c7 01       	movw	r24, r14
     a56:	b6 01       	movw	r22, r12
     a58:	6c 52       	subi	r22, 0x2C	; 44
     a5a:	7d 47       	sbci	r23, 0x7D	; 125
     a5c:	80 40       	sbci	r24, 0x00	; 0
     a5e:	90 40       	sbci	r25, 0x00	; 0
	return (JND % 7);
     a60:	27 e0       	ldi	r18, 0x07	; 7
     a62:	30 e0       	ldi	r19, 0x00	; 0
     a64:	40 e0       	ldi	r20, 0x00	; 0
     a66:	50 e0       	ldi	r21, 0x00	; 0
     a68:	0e 94 36 15 	call	0x2a6c	; 0x2a6c <__udivmodsi4>
} // ds3231_calc_dow()
     a6c:	86 2f       	mov	r24, r22
     a6e:	ff 90       	pop	r15
     a70:	ef 90       	pop	r14
     a72:	df 90       	pop	r13
     a74:	cf 90       	pop	r12
     a76:	bf 90       	pop	r11
     a78:	af 90       	pop	r10
     a7a:	9f 90       	pop	r9
     a7c:	8f 90       	pop	r8
     a7e:	7f 90       	pop	r7
     a80:	6f 90       	pop	r6
     a82:	5f 90       	pop	r5
     a84:	4f 90       	pop	r4
     a86:	08 95       	ret

00000a88 <ds3231_setdate>:

void ds3231_setdate(uint8_t date, uint8_t mon, uint16_t year)
{
     a88:	0f 93       	push	r16
     a8a:	1f 93       	push	r17
     a8c:	cf 93       	push	r28
     a8e:	df 93       	push	r29
     a90:	c8 2f       	mov	r28, r24
     a92:	d6 2f       	mov	r29, r22
	uint8_t dow;
	
	if (((date > 0) && (date <= 31)) && ((mon > 0) && (mon <= 12)) && ((year >= 2000) && (year < 3000)))
     a94:	81 50       	subi	r24, 0x01	; 1
     a96:	8f 31       	cpi	r24, 0x1F	; 31
     a98:	38 f5       	brcc	.+78     	; 0xae8 <ds3231_setdate+0x60>
     a9a:	86 2f       	mov	r24, r22
     a9c:	81 50       	subi	r24, 0x01	; 1
     a9e:	8c 30       	cpi	r24, 0x0C	; 12
     aa0:	18 f5       	brcc	.+70     	; 0xae8 <ds3231_setdate+0x60>
     aa2:	8a 01       	movw	r16, r20
     aa4:	00 5d       	subi	r16, 0xD0	; 208
     aa6:	17 40       	sbci	r17, 0x07	; 7
     aa8:	83 e0       	ldi	r24, 0x03	; 3
     aaa:	08 3e       	cpi	r16, 0xE8	; 232
     aac:	18 07       	cpc	r17, r24
     aae:	e0 f4       	brcc	.+56     	; 0xae8 <ds3231_setdate+0x60>
	{
		dow = ds3231_calc_dow(date, mon, year);
     ab0:	8c 2f       	mov	r24, r28
     ab2:	0e 94 a6 04 	call	0x94c	; 0x94c <ds3231_calc_dow>
     ab6:	68 2f       	mov	r22, r24
		ds3231_write_register(REG_DOW,dow);
     ab8:	83 e0       	ldi	r24, 0x03	; 3
     aba:	0e 94 0b 04 	call	0x816	; 0x816 <ds3231_write_register>
		year -= 2000;
		ds3231_write_register(REG_YEAR, ds3231_encode(year));
     abe:	80 2f       	mov	r24, r16
     ac0:	0e 94 d8 03 	call	0x7b0	; 0x7b0 <ds3231_encode>
     ac4:	68 2f       	mov	r22, r24
     ac6:	86 e0       	ldi	r24, 0x06	; 6
     ac8:	0e 94 0b 04 	call	0x816	; 0x816 <ds3231_write_register>
		ds3231_write_register(REG_MON , ds3231_encode(mon));
     acc:	8d 2f       	mov	r24, r29
     ace:	0e 94 d8 03 	call	0x7b0	; 0x7b0 <ds3231_encode>
     ad2:	68 2f       	mov	r22, r24
     ad4:	85 e0       	ldi	r24, 0x05	; 5
     ad6:	0e 94 0b 04 	call	0x816	; 0x816 <ds3231_write_register>
		ds3231_write_register(REG_DATE, ds3231_encode(date));
     ada:	8c 2f       	mov	r24, r28
     adc:	0e 94 d8 03 	call	0x7b0	; 0x7b0 <ds3231_encode>
     ae0:	68 2f       	mov	r22, r24
     ae2:	84 e0       	ldi	r24, 0x04	; 4
     ae4:	0e 94 0b 04 	call	0x816	; 0x816 <ds3231_write_register>
	} // if
} // ds3231_setdate()
     ae8:	df 91       	pop	r29
     aea:	cf 91       	pop	r28
     aec:	1f 91       	pop	r17
     aee:	0f 91       	pop	r16
     af0:	08 95       	ret

00000af2 <ds3231_setdow>:

void ds3231_setdow(uint8_t dow)
{
     af2:	68 2f       	mov	r22, r24
	if ((dow > 0) && (dow < 8))
     af4:	81 50       	subi	r24, 0x01	; 1
     af6:	87 30       	cpi	r24, 0x07	; 7
     af8:	18 f4       	brcc	.+6      	; 0xb00 <ds3231_setdow+0xe>
		ds3231_write_register(REG_DOW, dow);
     afa:	83 e0       	ldi	r24, 0x03	; 3
     afc:	0e 94 0b 04 	call	0x816	; 0x816 <ds3231_write_register>
     b00:	08 95       	ret

00000b02 <ds3231_gettemp>:
} // ds3231_setdow() 

// Returns the Temperature in a Q8.2 format
int16_t ds3231_gettemp(void)
{
     b02:	0f 93       	push	r16
     b04:	1f 93       	push	r17
     b06:	cf 93       	push	r28
     b08:	df 93       	push	r29
     b0a:	00 d0       	rcall	.+0      	; 0xb0c <ds3231_gettemp+0xa>
     b0c:	cd b7       	in	r28, 0x3d	; 61
     b0e:	de b7       	in	r29, 0x3e	; 62
	bool err;
	uint8_t msb,lsb;
	int16_t retv;
	
	err    = ds3231_read_register(REG_TEMPM, &msb);
     b10:	81 e1       	ldi	r24, 0x11	; 17
     b12:	be 01       	movw	r22, r28
     b14:	6f 5f       	subi	r22, 0xFF	; 255
     b16:	7f 4f       	sbci	r23, 0xFF	; 255
     b18:	0e 94 df 03 	call	0x7be	; 0x7be <ds3231_read_register>
	retv   = msb;
     b1c:	09 81       	ldd	r16, Y+1	; 0x01
     b1e:	10 e0       	ldi	r17, 0x00	; 0
	retv <<= 2; // SHL 2
     b20:	00 0f       	add	r16, r16
     b22:	11 1f       	adc	r17, r17
     b24:	00 0f       	add	r16, r16
     b26:	11 1f       	adc	r17, r17
	if (!err) err = ds3231_read_register(REG_TEMPL, &lsb);
     b28:	88 23       	and	r24, r24
     b2a:	31 f4       	brne	.+12     	; 0xb38 <ds3231_gettemp+0x36>
     b2c:	82 e1       	ldi	r24, 0x12	; 18
     b2e:	be 01       	movw	r22, r28
     b30:	6e 5f       	subi	r22, 0xFE	; 254
     b32:	7f 4f       	sbci	r23, 0xFF	; 255
     b34:	0e 94 df 03 	call	0x7be	; 0x7be <ds3231_read_register>
	retv  |= (lsb >> 6);
     b38:	2a 81       	ldd	r18, Y+2	; 0x02
     b3a:	22 95       	swap	r18
     b3c:	26 95       	lsr	r18
     b3e:	26 95       	lsr	r18
     b40:	23 70       	andi	r18, 0x03	; 3
     b42:	30 e0       	ldi	r19, 0x00	; 0
     b44:	02 2b       	or	r16, r18
     b46:	13 2b       	or	r17, r19
	if (retv & 0x0200)
     b48:	11 ff       	sbrs	r17, 1
     b4a:	04 c0       	rjmp	.+8      	; 0xb54 <ds3231_gettemp+0x52>
	{   // sign-bit is set
		retv &= ~0x0200; // clear sign bit
     b4c:	1d 7f       	andi	r17, 0xFD	; 253
		retv = -retv;    // 2-complement
     b4e:	10 95       	com	r17
     b50:	01 95       	neg	r16
     b52:	1f 4f       	sbci	r17, 0xFF	; 255
	} // if
	if (!err) return retv;
     b54:	88 23       	and	r24, r24
     b56:	11 f0       	breq	.+4      	; 0xb5c <ds3231_gettemp+0x5a>
	else      return 0;
     b58:	00 e0       	ldi	r16, 0x00	; 0
     b5a:	10 e0       	ldi	r17, 0x00	; 0
} // ds3231_gettemp()
     b5c:	80 2f       	mov	r24, r16
     b5e:	91 2f       	mov	r25, r17
     b60:	0f 90       	pop	r0
     b62:	0f 90       	pop	r0
     b64:	df 91       	pop	r29
     b66:	cf 91       	pop	r28
     b68:	1f 91       	pop	r17
     b6a:	0f 91       	pop	r16
     b6c:	08 95       	ret

00000b6e <MATCH>:
// I may revisit this code at a later date and look at the assembler produced
//   in a hope of finding out what is going on, but for now they will remain as
//   functions even in non-DEBUG mode
//
int  MATCH (int measured,  int desired)
{
     b6e:	cf 92       	push	r12
     b70:	df 92       	push	r13
     b72:	ef 92       	push	r14
     b74:	ff 92       	push	r15
     b76:	cf 93       	push	r28
     b78:	df 93       	push	r29
     b7a:	ec 01       	movw	r28, r24
  bool passed = ((measured >= TICKS_LOW(desired)) && (measured <= TICKS_HIGH(desired)));
     b7c:	88 27       	eor	r24, r24
     b7e:	77 fd       	sbrc	r23, 7
     b80:	80 95       	com	r24
     b82:	98 2f       	mov	r25, r24
     b84:	0e 94 f5 13 	call	0x27ea	; 0x27ea <__floatsisf>
     b88:	6b 01       	movw	r12, r22
     b8a:	7c 01       	movw	r14, r24
     b8c:	20 e0       	ldi	r18, 0x00	; 0
     b8e:	30 e0       	ldi	r19, 0x00	; 0
     b90:	40 e0       	ldi	r20, 0x00	; 0
     b92:	5f e3       	ldi	r21, 0x3F	; 63
     b94:	0e 94 81 14 	call	0x2902	; 0x2902 <__mulsf3>
     b98:	20 e0       	ldi	r18, 0x00	; 0
     b9a:	30 e0       	ldi	r19, 0x00	; 0
     b9c:	48 e4       	ldi	r20, 0x48	; 72
     b9e:	52 e4       	ldi	r21, 0x42	; 66
     ba0:	0e 94 5a 13 	call	0x26b4	; 0x26b4 <__divsf3>
     ba4:	0e 94 c2 13 	call	0x2784	; 0x2784 <__fixsfsi>
     ba8:	dc 01       	movw	r26, r24
     baa:	cb 01       	movw	r24, r22
     bac:	c8 17       	cp	r28, r24
     bae:	d9 07       	cpc	r29, r25
     bb0:	04 f1       	brlt	.+64     	; 0xbf2 <MATCH+0x84>
     bb2:	c7 01       	movw	r24, r14
     bb4:	b6 01       	movw	r22, r12
     bb6:	20 e0       	ldi	r18, 0x00	; 0
     bb8:	30 e0       	ldi	r19, 0x00	; 0
     bba:	40 ec       	ldi	r20, 0xC0	; 192
     bbc:	5f e3       	ldi	r21, 0x3F	; 63
     bbe:	0e 94 81 14 	call	0x2902	; 0x2902 <__mulsf3>
     bc2:	20 e0       	ldi	r18, 0x00	; 0
     bc4:	30 e0       	ldi	r19, 0x00	; 0
     bc6:	48 e4       	ldi	r20, 0x48	; 72
     bc8:	52 e4       	ldi	r21, 0x42	; 66
     bca:	0e 94 5a 13 	call	0x26b4	; 0x26b4 <__divsf3>
     bce:	20 e0       	ldi	r18, 0x00	; 0
     bd0:	30 e0       	ldi	r19, 0x00	; 0
     bd2:	40 e8       	ldi	r20, 0x80	; 128
     bd4:	5f e3       	ldi	r21, 0x3F	; 63
     bd6:	0e 94 f6 12 	call	0x25ec	; 0x25ec <__addsf3>
     bda:	0e 94 c2 13 	call	0x2784	; 0x2784 <__fixsfsi>
     bde:	ab 01       	movw	r20, r22
     be0:	bc 01       	movw	r22, r24
//   and I am currently assuming that one of these bugs is my problem.
// I may revisit this code at a later date and look at the assembler produced
//   in a hope of finding out what is going on, but for now they will remain as
//   functions even in non-DEBUG mode
//
int  MATCH (int measured,  int desired)
     be2:	81 e0       	ldi	r24, 0x01	; 1
     be4:	90 e0       	ldi	r25, 0x00	; 0
     be6:	4c 17       	cp	r20, r28
     be8:	5d 07       	cpc	r21, r29
     bea:	2c f4       	brge	.+10     	; 0xbf6 <MATCH+0x88>
     bec:	80 e0       	ldi	r24, 0x00	; 0
     bee:	90 e0       	ldi	r25, 0x00	; 0
     bf0:	02 c0       	rjmp	.+4      	; 0xbf6 <MATCH+0x88>
{
  bool passed = ((measured >= TICKS_LOW(desired)) && (measured <= TICKS_HIGH(desired)));
     bf2:	80 e0       	ldi	r24, 0x00	; 0
     bf4:	90 e0       	ldi	r25, 0x00	; 0
  return passed;
} // MATCH()
     bf6:	90 e0       	ldi	r25, 0x00	; 0
     bf8:	df 91       	pop	r29
     bfa:	cf 91       	pop	r28
     bfc:	ff 90       	pop	r15
     bfe:	ef 90       	pop	r14
     c00:	df 90       	pop	r13
     c02:	cf 90       	pop	r12
     c04:	08 95       	ret

00000c06 <MATCH_MARK>:

//---------------------------------------------------------------------
// Due to sensor lag, when received, Marks tend to be 100us too short
//---------------------------------------------------------------------
int  MATCH_MARK (int measured_ticks,  int desired_us)
{
     c06:	cf 92       	push	r12
     c08:	df 92       	push	r13
     c0a:	ef 92       	push	r14
     c0c:	ff 92       	push	r15
     c0e:	cf 93       	push	r28
     c10:	df 93       	push	r29
     c12:	ec 01       	movw	r28, r24
  bool passed = ((measured_ticks >= TICKS_LOW (desired_us - MARK_EXCESS))
     c14:	64 56       	subi	r22, 0x64	; 100
     c16:	70 40       	sbci	r23, 0x00	; 0
     c18:	88 27       	eor	r24, r24
     c1a:	77 fd       	sbrc	r23, 7
     c1c:	80 95       	com	r24
     c1e:	98 2f       	mov	r25, r24
     c20:	0e 94 f5 13 	call	0x27ea	; 0x27ea <__floatsisf>
     c24:	6b 01       	movw	r12, r22
     c26:	7c 01       	movw	r14, r24
     c28:	20 e0       	ldi	r18, 0x00	; 0
     c2a:	30 e0       	ldi	r19, 0x00	; 0
     c2c:	40 e0       	ldi	r20, 0x00	; 0
     c2e:	5f e3       	ldi	r21, 0x3F	; 63
     c30:	0e 94 81 14 	call	0x2902	; 0x2902 <__mulsf3>
     c34:	20 e0       	ldi	r18, 0x00	; 0
     c36:	30 e0       	ldi	r19, 0x00	; 0
     c38:	48 e4       	ldi	r20, 0x48	; 72
     c3a:	52 e4       	ldi	r21, 0x42	; 66
     c3c:	0e 94 5a 13 	call	0x26b4	; 0x26b4 <__divsf3>
     c40:	0e 94 c2 13 	call	0x2784	; 0x2784 <__fixsfsi>
     c44:	dc 01       	movw	r26, r24
     c46:	cb 01       	movw	r24, r22
                && (measured_ticks <= TICKS_HIGH(desired_us - MARK_EXCESS)));
     c48:	c8 17       	cp	r28, r24
     c4a:	d9 07       	cpc	r29, r25
     c4c:	04 f1       	brlt	.+64     	; 0xc8e <MATCH_MARK+0x88>
     c4e:	c7 01       	movw	r24, r14
     c50:	b6 01       	movw	r22, r12
     c52:	20 e0       	ldi	r18, 0x00	; 0
     c54:	30 e0       	ldi	r19, 0x00	; 0
     c56:	40 ec       	ldi	r20, 0xC0	; 192
     c58:	5f e3       	ldi	r21, 0x3F	; 63
     c5a:	0e 94 81 14 	call	0x2902	; 0x2902 <__mulsf3>
     c5e:	20 e0       	ldi	r18, 0x00	; 0
     c60:	30 e0       	ldi	r19, 0x00	; 0
     c62:	48 e4       	ldi	r20, 0x48	; 72
     c64:	52 e4       	ldi	r21, 0x42	; 66
     c66:	0e 94 5a 13 	call	0x26b4	; 0x26b4 <__divsf3>
     c6a:	20 e0       	ldi	r18, 0x00	; 0
     c6c:	30 e0       	ldi	r19, 0x00	; 0
     c6e:	40 e8       	ldi	r20, 0x80	; 128
     c70:	5f e3       	ldi	r21, 0x3F	; 63
     c72:	0e 94 f6 12 	call	0x25ec	; 0x25ec <__addsf3>
     c76:	0e 94 c2 13 	call	0x2784	; 0x2784 <__fixsfsi>
     c7a:	ab 01       	movw	r20, r22
     c7c:	bc 01       	movw	r22, r24
} // MATCH()

//---------------------------------------------------------------------
// Due to sensor lag, when received, Marks tend to be 100us too short
//---------------------------------------------------------------------
int  MATCH_MARK (int measured_ticks,  int desired_us)
     c7e:	81 e0       	ldi	r24, 0x01	; 1
     c80:	90 e0       	ldi	r25, 0x00	; 0
     c82:	4c 17       	cp	r20, r28
     c84:	5d 07       	cpc	r21, r29
     c86:	2c f4       	brge	.+10     	; 0xc92 <MATCH_MARK+0x8c>
     c88:	80 e0       	ldi	r24, 0x00	; 0
     c8a:	90 e0       	ldi	r25, 0x00	; 0
     c8c:	02 c0       	rjmp	.+4      	; 0xc92 <MATCH_MARK+0x8c>
{
  bool passed = ((measured_ticks >= TICKS_LOW (desired_us - MARK_EXCESS))
                && (measured_ticks <= TICKS_HIGH(desired_us - MARK_EXCESS)));
     c8e:	80 e0       	ldi	r24, 0x00	; 0
     c90:	90 e0       	ldi	r25, 0x00	; 0
  return passed;
} // MATCH_MARK()
     c92:	90 e0       	ldi	r25, 0x00	; 0
     c94:	df 91       	pop	r29
     c96:	cf 91       	pop	r28
     c98:	ff 90       	pop	r15
     c9a:	ef 90       	pop	r14
     c9c:	df 90       	pop	r13
     c9e:	cf 90       	pop	r12
     ca0:	08 95       	ret

00000ca2 <MATCH_SPACE>:

//---------------------------------------------------------------------
// Due to sensor lag, when received, Spaces tend to be 100us too long
//---------------------------------------------------------------------
int  MATCH_SPACE (int measured_ticks,  int desired_us)
{
     ca2:	cf 92       	push	r12
     ca4:	df 92       	push	r13
     ca6:	ef 92       	push	r14
     ca8:	ff 92       	push	r15
     caa:	cf 93       	push	r28
     cac:	df 93       	push	r29
     cae:	ec 01       	movw	r28, r24
  bool passed = ((measured_ticks >= TICKS_LOW (desired_us + MARK_EXCESS))
     cb0:	6c 59       	subi	r22, 0x9C	; 156
     cb2:	7f 4f       	sbci	r23, 0xFF	; 255
     cb4:	88 27       	eor	r24, r24
     cb6:	77 fd       	sbrc	r23, 7
     cb8:	80 95       	com	r24
     cba:	98 2f       	mov	r25, r24
     cbc:	0e 94 f5 13 	call	0x27ea	; 0x27ea <__floatsisf>
     cc0:	6b 01       	movw	r12, r22
     cc2:	7c 01       	movw	r14, r24
     cc4:	20 e0       	ldi	r18, 0x00	; 0
     cc6:	30 e0       	ldi	r19, 0x00	; 0
     cc8:	40 e0       	ldi	r20, 0x00	; 0
     cca:	5f e3       	ldi	r21, 0x3F	; 63
     ccc:	0e 94 81 14 	call	0x2902	; 0x2902 <__mulsf3>
     cd0:	20 e0       	ldi	r18, 0x00	; 0
     cd2:	30 e0       	ldi	r19, 0x00	; 0
     cd4:	48 e4       	ldi	r20, 0x48	; 72
     cd6:	52 e4       	ldi	r21, 0x42	; 66
     cd8:	0e 94 5a 13 	call	0x26b4	; 0x26b4 <__divsf3>
     cdc:	0e 94 c2 13 	call	0x2784	; 0x2784 <__fixsfsi>
     ce0:	dc 01       	movw	r26, r24
     ce2:	cb 01       	movw	r24, r22
                && (measured_ticks <= TICKS_HIGH(desired_us + MARK_EXCESS)));
     ce4:	c8 17       	cp	r28, r24
     ce6:	d9 07       	cpc	r29, r25
     ce8:	04 f1       	brlt	.+64     	; 0xd2a <MATCH_SPACE+0x88>
     cea:	c7 01       	movw	r24, r14
     cec:	b6 01       	movw	r22, r12
     cee:	20 e0       	ldi	r18, 0x00	; 0
     cf0:	30 e0       	ldi	r19, 0x00	; 0
     cf2:	40 ec       	ldi	r20, 0xC0	; 192
     cf4:	5f e3       	ldi	r21, 0x3F	; 63
     cf6:	0e 94 81 14 	call	0x2902	; 0x2902 <__mulsf3>
     cfa:	20 e0       	ldi	r18, 0x00	; 0
     cfc:	30 e0       	ldi	r19, 0x00	; 0
     cfe:	48 e4       	ldi	r20, 0x48	; 72
     d00:	52 e4       	ldi	r21, 0x42	; 66
     d02:	0e 94 5a 13 	call	0x26b4	; 0x26b4 <__divsf3>
     d06:	20 e0       	ldi	r18, 0x00	; 0
     d08:	30 e0       	ldi	r19, 0x00	; 0
     d0a:	40 e8       	ldi	r20, 0x80	; 128
     d0c:	5f e3       	ldi	r21, 0x3F	; 63
     d0e:	0e 94 f6 12 	call	0x25ec	; 0x25ec <__addsf3>
     d12:	0e 94 c2 13 	call	0x2784	; 0x2784 <__fixsfsi>
     d16:	ab 01       	movw	r20, r22
     d18:	bc 01       	movw	r22, r24
} // MATCH_MARK()

//---------------------------------------------------------------------
// Due to sensor lag, when received, Spaces tend to be 100us too long
//---------------------------------------------------------------------
int  MATCH_SPACE (int measured_ticks,  int desired_us)
     d1a:	81 e0       	ldi	r24, 0x01	; 1
     d1c:	90 e0       	ldi	r25, 0x00	; 0
     d1e:	4c 17       	cp	r20, r28
     d20:	5d 07       	cpc	r21, r29
     d22:	2c f4       	brge	.+10     	; 0xd2e <MATCH_SPACE+0x8c>
     d24:	80 e0       	ldi	r24, 0x00	; 0
     d26:	90 e0       	ldi	r25, 0x00	; 0
     d28:	02 c0       	rjmp	.+4      	; 0xd2e <MATCH_SPACE+0x8c>
{
  bool passed = ((measured_ticks >= TICKS_LOW (desired_us + MARK_EXCESS))
                && (measured_ticks <= TICKS_HIGH(desired_us + MARK_EXCESS)));
     d2a:	80 e0       	ldi	r24, 0x00	; 0
     d2c:	90 e0       	ldi	r25, 0x00	; 0
  return passed;
} // MATCH_SPACE()
     d2e:	90 e0       	ldi	r25, 0x00	; 0
     d30:	df 91       	pop	r29
     d32:	cf 91       	pop	r28
     d34:	ff 90       	pop	r15
     d36:	ef 90       	pop	r14
     d38:	df 90       	pop	r13
     d3a:	cf 90       	pop	r12
     d3c:	08 95       	ret

00000d3e <ir_init>:
  Returns  : -
  ------------------------------------------------------------------*/
void ir_init(void)
{
	// Initialize state machine variables
	irparams.rcvstate = STATE_IDLE;
     d3e:	82 e0       	ldi	r24, 0x02	; 2
     d40:	80 93 31 03 	sts	0x0331, r24
	irparams.rawlen   = 0;
     d44:	10 92 32 03 	sts	0x0332, r1
} // ir_init()
     d48:	08 95       	ret

00000d4a <ir_isr>:
void ir_isr(void)
{
	// Read if IR Receiver -> SPACE [xmt LED off] or a MARK [xmt LED on]
	uint8_t  irdata = 0;
	if (PINB & IR_RCV) // PB3 (D11). NOTE: PINB, not PORTB for reading!
	     irdata = 1;
     d4a:	21 e0       	ldi	r18, 0x01	; 1
     d4c:	1b 9b       	sbis	0x03, 3	; 3
     d4e:	20 e0       	ldi	r18, 0x00	; 0
	else irdata = 0;
	irparams.timer++;  // One more 50uS tick
     d50:	80 91 33 03 	lds	r24, 0x0333
     d54:	90 91 34 03 	lds	r25, 0x0334
     d58:	01 96       	adiw	r24, 0x01	; 1
     d5a:	90 93 34 03 	sts	0x0334, r25
     d5e:	80 93 33 03 	sts	0x0333, r24
	if (irparams.rawlen >= RAWBUF)  irparams.rcvstate = STATE_OVERFLOW ;  // Buffer overflow
     d62:	80 91 32 03 	lds	r24, 0x0332
     d66:	85 36       	cpi	r24, 0x65	; 101
     d68:	18 f0       	brcs	.+6      	; 0xd70 <ir_isr+0x26>
     d6a:	86 e0       	ldi	r24, 0x06	; 6
     d6c:	80 93 31 03 	sts	0x0331, r24

	switch(irparams.rcvstate) {
     d70:	80 91 31 03 	lds	r24, 0x0331
     d74:	84 30       	cpi	r24, 0x04	; 4
     d76:	09 f4       	brne	.+2      	; 0xd7a <ir_isr+0x30>
     d78:	5b c0       	rjmp	.+182    	; 0xe30 <ir_isr+0xe6>
     d7a:	85 30       	cpi	r24, 0x05	; 5
     d7c:	30 f4       	brcc	.+12     	; 0xd8a <ir_isr+0x40>
     d7e:	82 30       	cpi	r24, 0x02	; 2
     d80:	59 f0       	breq	.+22     	; 0xd98 <ir_isr+0x4e>
     d82:	83 30       	cpi	r24, 0x03	; 3
     d84:	09 f0       	breq	.+2      	; 0xd88 <ir_isr+0x3e>
     d86:	8b c0       	rjmp	.+278    	; 0xe9e <ir_isr+0x154>
     d88:	34 c0       	rjmp	.+104    	; 0xdf2 <ir_isr+0xa8>
     d8a:	85 30       	cpi	r24, 0x05	; 5
     d8c:	09 f4       	brne	.+2      	; 0xd90 <ir_isr+0x46>
     d8e:	7a c0       	rjmp	.+244    	; 0xe84 <ir_isr+0x13a>
     d90:	86 30       	cpi	r24, 0x06	; 6
     d92:	09 f0       	breq	.+2      	; 0xd96 <ir_isr+0x4c>
     d94:	84 c0       	rjmp	.+264    	; 0xe9e <ir_isr+0x154>
     d96:	7d c0       	rjmp	.+250    	; 0xe92 <ir_isr+0x148>
		//......................................................................
		case STATE_IDLE: // In the middle of a gap
			if (irdata == MARK) {
     d98:	22 23       	and	r18, r18
     d9a:	09 f0       	breq	.+2      	; 0xd9e <ir_isr+0x54>
     d9c:	80 c0       	rjmp	.+256    	; 0xe9e <ir_isr+0x154>
				if (irparams.timer < GAP_TICKS)  {  // Not big enough to be a gap.
     d9e:	80 91 33 03 	lds	r24, 0x0333
     da2:	90 91 34 03 	lds	r25, 0x0334
     da6:	21 e0       	ldi	r18, 0x01	; 1
     da8:	80 39       	cpi	r24, 0x90	; 144
     daa:	92 07       	cpc	r25, r18
     dac:	28 f4       	brcc	.+10     	; 0xdb8 <ir_isr+0x6e>
					irparams.timer = 0;
     dae:	10 92 34 03 	sts	0x0334, r1
     db2:	10 92 33 03 	sts	0x0333, r1
     db6:	08 95       	ret
				} else {
					// Gap just ended; Record duration; Start recording transmission
					irparams.overflow                  = false;
     db8:	10 92 ff 03 	sts	0x03FF, r1
					irparams.rawlen                    = 0;
     dbc:	10 92 32 03 	sts	0x0332, r1
					irparams.rawbuf[irparams.rawlen++] = irparams.timer;
     dc0:	20 91 32 03 	lds	r18, 0x0332
     dc4:	e2 2f       	mov	r30, r18
     dc6:	f0 e0       	ldi	r31, 0x00	; 0
     dc8:	80 91 33 03 	lds	r24, 0x0333
     dcc:	90 91 34 03 	lds	r25, 0x0334
     dd0:	ee 0f       	add	r30, r30
     dd2:	ff 1f       	adc	r31, r31
     dd4:	eb 5c       	subi	r30, 0xCB	; 203
     dd6:	fc 4f       	sbci	r31, 0xFC	; 252
     dd8:	91 83       	std	Z+1, r25	; 0x01
     dda:	80 83       	st	Z, r24
     ddc:	2f 5f       	subi	r18, 0xFF	; 255
     dde:	20 93 32 03 	sts	0x0332, r18
					irparams.timer                     = 0;
     de2:	10 92 34 03 	sts	0x0334, r1
     de6:	10 92 33 03 	sts	0x0333, r1
					irparams.rcvstate                  = STATE_MARK;
     dea:	83 e0       	ldi	r24, 0x03	; 3
     dec:	80 93 31 03 	sts	0x0331, r24
     df0:	08 95       	ret
				} // else
			} // if
			break;
		//......................................................................
		case STATE_MARK:  // Timing Mark
			if (irdata == SPACE) {   // Mark ended; Record time
     df2:	21 30       	cpi	r18, 0x01	; 1
     df4:	09 f0       	breq	.+2      	; 0xdf8 <ir_isr+0xae>
     df6:	53 c0       	rjmp	.+166    	; 0xe9e <ir_isr+0x154>
				irparams.rawbuf[irparams.rawlen++] = irparams.timer;
     df8:	20 91 32 03 	lds	r18, 0x0332
     dfc:	a2 2f       	mov	r26, r18
     dfe:	b0 e0       	ldi	r27, 0x00	; 0
     e00:	80 91 33 03 	lds	r24, 0x0333
     e04:	90 91 34 03 	lds	r25, 0x0334
     e08:	12 96       	adiw	r26, 0x02	; 2
     e0a:	e1 e3       	ldi	r30, 0x31	; 49
     e0c:	f3 e0       	ldi	r31, 0x03	; 3
     e0e:	aa 0f       	add	r26, r26
     e10:	bb 1f       	adc	r27, r27
     e12:	ae 0f       	add	r26, r30
     e14:	bf 1f       	adc	r27, r31
     e16:	11 96       	adiw	r26, 0x01	; 1
     e18:	9c 93       	st	X, r25
     e1a:	8e 93       	st	-X, r24
     e1c:	2f 5f       	subi	r18, 0xFF	; 255
     e1e:	20 93 32 03 	sts	0x0332, r18
				irparams.timer                     = 0;
     e22:	10 92 34 03 	sts	0x0334, r1
     e26:	10 92 33 03 	sts	0x0333, r1
				irparams.rcvstate                  = STATE_SPACE;
     e2a:	84 e0       	ldi	r24, 0x04	; 4
     e2c:	80 83       	st	Z, r24
     e2e:	08 95       	ret
			} // if
			break;
		//......................................................................
		case STATE_SPACE:  // Timing Space
			if (irdata == MARK) {  // Space just ended; Record time
     e30:	22 23       	and	r18, r18
     e32:	e1 f4       	brne	.+56     	; 0xe6c <ir_isr+0x122>
				irparams.rawbuf[irparams.rawlen++] = irparams.timer;
     e34:	20 91 32 03 	lds	r18, 0x0332
     e38:	a2 2f       	mov	r26, r18
     e3a:	b0 e0       	ldi	r27, 0x00	; 0
     e3c:	80 91 33 03 	lds	r24, 0x0333
     e40:	90 91 34 03 	lds	r25, 0x0334
     e44:	12 96       	adiw	r26, 0x02	; 2
     e46:	e1 e3       	ldi	r30, 0x31	; 49
     e48:	f3 e0       	ldi	r31, 0x03	; 3
     e4a:	aa 0f       	add	r26, r26
     e4c:	bb 1f       	adc	r27, r27
     e4e:	ae 0f       	add	r26, r30
     e50:	bf 1f       	adc	r27, r31
     e52:	11 96       	adiw	r26, 0x01	; 1
     e54:	9c 93       	st	X, r25
     e56:	8e 93       	st	-X, r24
     e58:	2f 5f       	subi	r18, 0xFF	; 255
     e5a:	20 93 32 03 	sts	0x0332, r18
				irparams.timer                     = 0;
     e5e:	10 92 34 03 	sts	0x0334, r1
     e62:	10 92 33 03 	sts	0x0333, r1
				irparams.rcvstate                  = STATE_MARK;
     e66:	83 e0       	ldi	r24, 0x03	; 3
     e68:	80 83       	st	Z, r24
     e6a:	08 95       	ret
			} else if (irparams.timer > GAP_TICKS) {  // Space
     e6c:	80 91 33 03 	lds	r24, 0x0333
     e70:	90 91 34 03 	lds	r25, 0x0334
     e74:	21 e0       	ldi	r18, 0x01	; 1
     e76:	81 39       	cpi	r24, 0x91	; 145
     e78:	92 07       	cpc	r25, r18
     e7a:	88 f0       	brcs	.+34     	; 0xe9e <ir_isr+0x154>
					// A long Space, indicates gap between codes
					// Flag the current code as ready for processing
					// Switch to STOP
					// Don't reset timer; keep counting Space width
					irparams.rcvstate = STATE_STOP;
     e7c:	85 e0       	ldi	r24, 0x05	; 5
     e7e:	80 93 31 03 	sts	0x0331, r24
     e82:	08 95       	ret
			} // else if
			break;
		//......................................................................
		case STATE_STOP:  // Waiting; Measuring Gap
		 	if (irdata == MARK)  irparams.timer = 0 ;  // Reset gap timer
     e84:	22 23       	and	r18, r18
     e86:	59 f4       	brne	.+22     	; 0xe9e <ir_isr+0x154>
     e88:	10 92 34 03 	sts	0x0334, r1
     e8c:	10 92 33 03 	sts	0x0333, r1
     e90:	08 95       	ret
		 	break;
		//......................................................................
		case STATE_OVERFLOW:  // Flag up a read overflow; Stop the State Machine
			irparams.overflow = true;
     e92:	81 e0       	ldi	r24, 0x01	; 1
     e94:	80 93 ff 03 	sts	0x03FF, r24
			irparams.rcvstate = STATE_STOP;
     e98:	85 e0       	ldi	r24, 0x05	; 5
     e9a:	80 93 31 03 	sts	0x0331, r24
     e9e:	08 95       	ret

00000ea0 <ir_decode_nec>:
             the result in results->value.
  Variables: results: pointer to decode_results struct
  Returns  : true = success ; false = error
  ------------------------------------------------------------------*/
bool  ir_decode_nec(decode_results *results)
{
     ea0:	6f 92       	push	r6
     ea2:	7f 92       	push	r7
     ea4:	8f 92       	push	r8
     ea6:	9f 92       	push	r9
     ea8:	af 92       	push	r10
     eaa:	bf 92       	push	r11
     eac:	cf 92       	push	r12
     eae:	df 92       	push	r13
     eb0:	ef 92       	push	r14
     eb2:	ff 92       	push	r15
     eb4:	0f 93       	push	r16
     eb6:	1f 93       	push	r17
     eb8:	cf 93       	push	r28
     eba:	df 93       	push	r29
     ebc:	5c 01       	movw	r10, r24
	long  data   = 0;  // We decode in to here; Start with nothing
	int   offset = 1;  // Index in to results; Skip first entry!?

	if (results->rcvstate != STATE_STOP)  return false ;
     ebe:	fc 01       	movw	r30, r24
     ec0:	84 85       	ldd	r24, Z+12	; 0x0c
     ec2:	85 30       	cpi	r24, 0x05	; 5
     ec4:	09 f0       	breq	.+2      	; 0xec8 <ir_decode_nec+0x28>
     ec6:	90 c0       	rjmp	.+288    	; 0xfe8 <ir_decode_nec+0x148>
	// Check header "mark"
	if (!MATCH_MARK(results->rawbuf[offset], NEC_HDR_MARK))  return false;
     ec8:	c6 81       	ldd	r28, Z+6	; 0x06
     eca:	d7 81       	ldd	r29, Z+7	; 0x07
     ecc:	8a 81       	ldd	r24, Y+2	; 0x02
     ece:	9b 81       	ldd	r25, Y+3	; 0x03
     ed0:	68 e2       	ldi	r22, 0x28	; 40
     ed2:	73 e2       	ldi	r23, 0x23	; 35
     ed4:	0e 94 03 06 	call	0xc06	; 0xc06 <MATCH_MARK>
     ed8:	00 97       	sbiw	r24, 0x00	; 0
     eda:	09 f4       	brne	.+2      	; 0xede <ir_decode_nec+0x3e>
     edc:	87 c0       	rjmp	.+270    	; 0xfec <ir_decode_nec+0x14c>
	offset++;
	// Check for repeat
	if ((results->rawlen == 4) &&
     ede:	f5 01       	movw	r30, r10
     ee0:	80 85       	ldd	r24, Z+8	; 0x08
     ee2:	91 85       	ldd	r25, Z+9	; 0x09
     ee4:	84 30       	cpi	r24, 0x04	; 4
     ee6:	91 05       	cpc	r25, r1
     ee8:	f1 f4       	brne	.+60     	; 0xf26 <ir_decode_nec+0x86>
	MATCH_SPACE(results->rawbuf[offset  ], NEC_RPT_SPACE) &&
     eea:	8c 81       	ldd	r24, Y+4	; 0x04
     eec:	9d 81       	ldd	r25, Y+5	; 0x05
     eee:	6a ec       	ldi	r22, 0xCA	; 202
     ef0:	78 e0       	ldi	r23, 0x08	; 8
     ef2:	0e 94 51 06 	call	0xca2	; 0xca2 <MATCH_SPACE>
	if (results->rcvstate != STATE_STOP)  return false ;
	// Check header "mark"
	if (!MATCH_MARK(results->rawbuf[offset], NEC_HDR_MARK))  return false;
	offset++;
	// Check for repeat
	if ((results->rawlen == 4) &&
     ef6:	00 97       	sbiw	r24, 0x00	; 0
     ef8:	09 f4       	brne	.+2      	; 0xefc <ir_decode_nec+0x5c>
     efa:	7a c0       	rjmp	.+244    	; 0xff0 <ir_decode_nec+0x150>
	MATCH_SPACE(results->rawbuf[offset  ], NEC_RPT_SPACE) &&
	MATCH_MARK (results->rawbuf[offset+1], NEC_BIT_MARK))
     efc:	8e 81       	ldd	r24, Y+6	; 0x06
     efe:	9f 81       	ldd	r25, Y+7	; 0x07
     f00:	60 e3       	ldi	r22, 0x30	; 48
     f02:	72 e0       	ldi	r23, 0x02	; 2
     f04:	0e 94 03 06 	call	0xc06	; 0xc06 <MATCH_MARK>
	// Check header "mark"
	if (!MATCH_MARK(results->rawbuf[offset], NEC_HDR_MARK))  return false;
	offset++;
	// Check for repeat
	if ((results->rawlen == 4) &&
	MATCH_SPACE(results->rawbuf[offset  ], NEC_RPT_SPACE) &&
     f08:	00 97       	sbiw	r24, 0x00	; 0
     f0a:	09 f4       	brne	.+2      	; 0xf0e <ir_decode_nec+0x6e>
     f0c:	73 c0       	rjmp	.+230    	; 0xff4 <ir_decode_nec+0x154>
	MATCH_MARK (results->rawbuf[offset+1], NEC_BIT_MARK))
	{
		results->bits  = 0;
     f0e:	f5 01       	movw	r30, r10
     f10:	15 82       	std	Z+5, r1	; 0x05
     f12:	14 82       	std	Z+4, r1	; 0x04
		results->value = REPEAT;
     f14:	8f ef       	ldi	r24, 0xFF	; 255
     f16:	9f ef       	ldi	r25, 0xFF	; 255
     f18:	dc 01       	movw	r26, r24
     f1a:	80 83       	st	Z, r24
     f1c:	91 83       	std	Z+1, r25	; 0x01
     f1e:	a2 83       	std	Z+2, r26	; 0x02
     f20:	b3 83       	std	Z+3, r27	; 0x03
		return true;
     f22:	81 e0       	ldi	r24, 0x01	; 1
     f24:	70 c0       	rjmp	.+224    	; 0x1006 <ir_decode_nec+0x166>
	} // if
	// Check we have enough data
	if (results->rawlen < (2 * NEC_BITS) + 4) return false;
     f26:	84 34       	cpi	r24, 0x44	; 68
     f28:	91 05       	cpc	r25, r1
     f2a:	0c f4       	brge	.+2      	; 0xf2e <ir_decode_nec+0x8e>
     f2c:	65 c0       	rjmp	.+202    	; 0xff8 <ir_decode_nec+0x158>
	// Check header "space"
	if (!MATCH_SPACE(results->rawbuf[offset], NEC_HDR_SPACE)) return false;
     f2e:	8c 81       	ldd	r24, Y+4	; 0x04
     f30:	9d 81       	ldd	r25, Y+5	; 0x05
     f32:	64 e9       	ldi	r22, 0x94	; 148
     f34:	71 e1       	ldi	r23, 0x11	; 17
     f36:	0e 94 51 06 	call	0xca2	; 0xca2 <MATCH_SPACE>
     f3a:	00 97       	sbiw	r24, 0x00	; 0
     f3c:	09 f4       	brne	.+2      	; 0xf40 <ir_decode_nec+0xa0>
     f3e:	5e c0       	rjmp	.+188    	; 0xffc <ir_decode_nec+0x15c>
     f40:	00 e0       	ldi	r16, 0x00	; 0
     f42:	10 e0       	ldi	r17, 0x00	; 0
     f44:	cc 24       	eor	r12, r12
     f46:	dd 24       	eor	r13, r13
     f48:	76 01       	movw	r14, r12
  Purpose  : This function decodes the bits from rawbuf and stores
             the result in results->value.
  Variables: results: pointer to decode_results struct
  Returns  : true = success ; false = error
  ------------------------------------------------------------------*/
bool  ir_decode_nec(decode_results *results)
     f4a:	0f 2e       	mov	r0, r31
     f4c:	f6 e0       	ldi	r31, 0x06	; 6
     f4e:	6f 2e       	mov	r6, r31
     f50:	77 24       	eor	r7, r7
     f52:	f0 2d       	mov	r31, r0
     f54:	6c 0e       	add	r6, r28
     f56:	7d 1e       	adc	r7, r29
     f58:	88 24       	eor	r8, r8
     f5a:	99 24       	eor	r9, r9
     f5c:	68 94       	set
     f5e:	83 f8       	bld	r8, 3
     f60:	8c 0e       	add	r8, r28
     f62:	9d 1e       	adc	r9, r29
     f64:	f3 01       	movw	r30, r6
     f66:	e0 0f       	add	r30, r16
     f68:	f1 1f       	adc	r31, r17
	if (!MATCH_SPACE(results->rawbuf[offset], NEC_HDR_SPACE)) return false;
	offset++;
	// Build the data
	for (int i = 0;  i < NEC_BITS;  i++) {
		// Check data "mark"
		if (!MATCH_MARK(results->rawbuf[offset], NEC_BIT_MARK)) return false;
     f6a:	80 81       	ld	r24, Z
     f6c:	91 81       	ldd	r25, Z+1	; 0x01
     f6e:	60 e3       	ldi	r22, 0x30	; 48
     f70:	72 e0       	ldi	r23, 0x02	; 2
     f72:	0e 94 03 06 	call	0xc06	; 0xc06 <MATCH_MARK>
     f76:	00 97       	sbiw	r24, 0x00	; 0
     f78:	09 f4       	brne	.+2      	; 0xf7c <ir_decode_nec+0xdc>
     f7a:	42 c0       	rjmp	.+132    	; 0x1000 <ir_decode_nec+0x160>
  Purpose  : This function decodes the bits from rawbuf and stores
             the result in results->value.
  Variables: results: pointer to decode_results struct
  Returns  : true = success ; false = error
  ------------------------------------------------------------------*/
bool  ir_decode_nec(decode_results *results)
     f7c:	e4 01       	movw	r28, r8
     f7e:	c0 0f       	add	r28, r16
     f80:	d1 1f       	adc	r29, r17
	for (int i = 0;  i < NEC_BITS;  i++) {
		// Check data "mark"
		if (!MATCH_MARK(results->rawbuf[offset], NEC_BIT_MARK)) return false;
		offset++;
		// Suppend this bit
		if      (MATCH_SPACE(results->rawbuf[offset], NEC_ONE_SPACE ))  data = (data << 1) | 1 ;
     f82:	88 81       	ld	r24, Y
     f84:	99 81       	ldd	r25, Y+1	; 0x01
     f86:	6a e9       	ldi	r22, 0x9A	; 154
     f88:	76 e0       	ldi	r23, 0x06	; 6
     f8a:	0e 94 51 06 	call	0xca2	; 0xca2 <MATCH_SPACE>
     f8e:	00 97       	sbiw	r24, 0x00	; 0
     f90:	79 f0       	breq	.+30     	; 0xfb0 <ir_decode_nec+0x110>
     f92:	d7 01       	movw	r26, r14
     f94:	c6 01       	movw	r24, r12
     f96:	88 0f       	add	r24, r24
     f98:	99 1f       	adc	r25, r25
     f9a:	aa 1f       	adc	r26, r26
     f9c:	bb 1f       	adc	r27, r27
     f9e:	cc 24       	eor	r12, r12
     fa0:	dd 24       	eor	r13, r13
     fa2:	76 01       	movw	r14, r12
     fa4:	c3 94       	inc	r12
     fa6:	c8 2a       	or	r12, r24
     fa8:	d9 2a       	or	r13, r25
     faa:	ea 2a       	or	r14, r26
     fac:	fb 2a       	or	r15, r27
     fae:	0c c0       	rjmp	.+24     	; 0xfc8 <ir_decode_nec+0x128>
		else if (MATCH_SPACE(results->rawbuf[offset], NEC_ZERO_SPACE))  data = (data << 1) | 0 ;
     fb0:	88 81       	ld	r24, Y
     fb2:	99 81       	ldd	r25, Y+1	; 0x01
     fb4:	60 e3       	ldi	r22, 0x30	; 48
     fb6:	72 e0       	ldi	r23, 0x02	; 2
     fb8:	0e 94 51 06 	call	0xca2	; 0xca2 <MATCH_SPACE>
     fbc:	00 97       	sbiw	r24, 0x00	; 0
     fbe:	11 f1       	breq	.+68     	; 0x1004 <ir_decode_nec+0x164>
     fc0:	cc 0c       	add	r12, r12
     fc2:	dd 1c       	adc	r13, r13
     fc4:	ee 1c       	adc	r14, r14
     fc6:	ff 1c       	adc	r15, r15
     fc8:	0c 5f       	subi	r16, 0xFC	; 252
     fca:	1f 4f       	sbci	r17, 0xFF	; 255
	if (results->rawlen < (2 * NEC_BITS) + 4) return false;
	// Check header "space"
	if (!MATCH_SPACE(results->rawbuf[offset], NEC_HDR_SPACE)) return false;
	offset++;
	// Build the data
	for (int i = 0;  i < NEC_BITS;  i++) {
     fcc:	00 38       	cpi	r16, 0x80	; 128
     fce:	11 05       	cpc	r17, r1
     fd0:	49 f6       	brne	.-110    	; 0xf64 <ir_decode_nec+0xc4>
		else if (MATCH_SPACE(results->rawbuf[offset], NEC_ZERO_SPACE))  data = (data << 1) | 0 ;
		else return false;
		offset++;
	} // for
	// Success
	results->bits  = NEC_BITS;
     fd2:	80 e2       	ldi	r24, 0x20	; 32
     fd4:	90 e0       	ldi	r25, 0x00	; 0
     fd6:	f5 01       	movw	r30, r10
     fd8:	95 83       	std	Z+5, r25	; 0x05
     fda:	84 83       	std	Z+4, r24	; 0x04
	results->value = data;
     fdc:	c0 82       	st	Z, r12
     fde:	d1 82       	std	Z+1, r13	; 0x01
     fe0:	e2 82       	std	Z+2, r14	; 0x02
     fe2:	f3 82       	std	Z+3, r15	; 0x03
	return true;
     fe4:	81 e0       	ldi	r24, 0x01	; 1
     fe6:	0f c0       	rjmp	.+30     	; 0x1006 <ir_decode_nec+0x166>
bool  ir_decode_nec(decode_results *results)
{
	long  data   = 0;  // We decode in to here; Start with nothing
	int   offset = 1;  // Index in to results; Skip first entry!?

	if (results->rcvstate != STATE_STOP)  return false ;
     fe8:	80 e0       	ldi	r24, 0x00	; 0
     fea:	0d c0       	rjmp	.+26     	; 0x1006 <ir_decode_nec+0x166>
	// Check header "mark"
	if (!MATCH_MARK(results->rawbuf[offset], NEC_HDR_MARK))  return false;
     fec:	80 e0       	ldi	r24, 0x00	; 0
     fee:	0b c0       	rjmp	.+22     	; 0x1006 <ir_decode_nec+0x166>
		results->bits  = 0;
		results->value = REPEAT;
		return true;
	} // if
	// Check we have enough data
	if (results->rawlen < (2 * NEC_BITS) + 4) return false;
     ff0:	80 e0       	ldi	r24, 0x00	; 0
     ff2:	09 c0       	rjmp	.+18     	; 0x1006 <ir_decode_nec+0x166>
     ff4:	80 e0       	ldi	r24, 0x00	; 0
     ff6:	07 c0       	rjmp	.+14     	; 0x1006 <ir_decode_nec+0x166>
     ff8:	80 e0       	ldi	r24, 0x00	; 0
     ffa:	05 c0       	rjmp	.+10     	; 0x1006 <ir_decode_nec+0x166>
	// Check header "space"
	if (!MATCH_SPACE(results->rawbuf[offset], NEC_HDR_SPACE)) return false;
     ffc:	80 e0       	ldi	r24, 0x00	; 0
     ffe:	03 c0       	rjmp	.+6      	; 0x1006 <ir_decode_nec+0x166>
	offset++;
	// Build the data
	for (int i = 0;  i < NEC_BITS;  i++) {
		// Check data "mark"
		if (!MATCH_MARK(results->rawbuf[offset], NEC_BIT_MARK)) return false;
    1000:	80 e0       	ldi	r24, 0x00	; 0
    1002:	01 c0       	rjmp	.+2      	; 0x1006 <ir_decode_nec+0x166>
		offset++;
		// Suppend this bit
		if      (MATCH_SPACE(results->rawbuf[offset], NEC_ONE_SPACE ))  data = (data << 1) | 1 ;
		else if (MATCH_SPACE(results->rawbuf[offset], NEC_ZERO_SPACE))  data = (data << 1) | 0 ;
		else return false;
    1004:	80 e0       	ldi	r24, 0x00	; 0
	} // for
	// Success
	results->bits  = NEC_BITS;
	results->value = data;
	return true;
} // ir_decode_nec()
    1006:	df 91       	pop	r29
    1008:	cf 91       	pop	r28
    100a:	1f 91       	pop	r17
    100c:	0f 91       	pop	r16
    100e:	ff 90       	pop	r15
    1010:	ef 90       	pop	r14
    1012:	df 90       	pop	r13
    1014:	cf 90       	pop	r12
    1016:	bf 90       	pop	r11
    1018:	af 90       	pop	r10
    101a:	9f 90       	pop	r9
    101c:	8f 90       	pop	r8
    101e:	7f 90       	pop	r7
    1020:	6f 90       	pop	r6
    1022:	08 95       	ret

00001024 <ir_is_idle>:
    return 1;
}

static __inline__ uint8_t __iCliRetVal(void)
{
    cli();
    1024:	f8 94       	cli
bool ir_is_idle(void)
{
	uint8_t rcvstate;
	ATOMIC_BLOCK(ATOMIC_FORCEON)
	{
		rcvstate = irparams.rcvstate;
    1026:	20 91 31 03 	lds	r18, 0x0331
    return 1;
}

static __inline__ void __iSeiParam(const uint8_t *__s)
{
    sei();
    102a:	78 94       	sei
	}	
	return ((rcvstate == STATE_IDLE) || (rcvstate == STATE_STOP)) ? true : false;
    102c:	22 30       	cpi	r18, 0x02	; 2
    102e:	39 f0       	breq	.+14     	; 0x103e <ir_is_idle+0x1a>
    1030:	81 e0       	ldi	r24, 0x01	; 1
    1032:	90 e0       	ldi	r25, 0x00	; 0
    1034:	25 30       	cpi	r18, 0x05	; 5
    1036:	29 f0       	breq	.+10     	; 0x1042 <ir_is_idle+0x1e>
    1038:	80 e0       	ldi	r24, 0x00	; 0
    103a:	90 e0       	ldi	r25, 0x00	; 0
    103c:	08 95       	ret
    103e:	81 e0       	ldi	r24, 0x01	; 1
    1040:	90 e0       	ldi	r25, 0x00	; 0
} // ir_is_idle()
    1042:	08 95       	ret

00001044 <ir_resume>:
    return 1;
}

static __inline__ uint8_t __iCliRetVal(void)
{
    cli();
    1044:	f8 94       	cli
  ------------------------------------------------------------------*/
void ir_resume(void)
{
	ATOMIC_BLOCK(ATOMIC_FORCEON)
	{
		irparams.rcvstate = STATE_IDLE;
    1046:	82 e0       	ldi	r24, 0x02	; 2
    1048:	80 93 31 03 	sts	0x0331, r24
		irparams.rawlen   = 0;
    104c:	10 92 32 03 	sts	0x0332, r1
    return 1;
}

static __inline__ void __iSeiParam(const uint8_t *__s)
{
    sei();
    1050:	78 94       	sei
	}	
} // ir_resume()
    1052:	08 95       	ret

00001054 <ir_decode>:
             the result in results->value
  Variables: results: pointer to decode_results struct
  Returns  : true = success ; false = error
  ------------------------------------------------------------------*/
bool  ir_decode(decode_results *results)
{
    1054:	fc 01       	movw	r30, r24
    return 1;
}

static __inline__ uint8_t __iCliRetVal(void)
{
    cli();
    1056:	f8 94       	cli
	ATOMIC_BLOCK(ATOMIC_FORCEON)
	{
		results->rawbuf   = irparams.rawbuf;
    1058:	85 e3       	ldi	r24, 0x35	; 53
    105a:	93 e0       	ldi	r25, 0x03	; 3
    105c:	97 83       	std	Z+7, r25	; 0x07
    105e:	86 83       	std	Z+6, r24	; 0x06
		results->rawlen   = irparams.rawlen;
    1060:	dc 01       	movw	r26, r24
    1062:	13 97       	sbiw	r26, 0x03	; 3
    1064:	2c 91       	ld	r18, X
    1066:	20 87       	std	Z+8, r18	; 0x08
    1068:	11 86       	std	Z+9, r1	; 0x09
		results->overflow = irparams.overflow;
    106a:	20 91 ff 03 	lds	r18, 0x03FF
    106e:	22 87       	std	Z+10, r18	; 0x0a
    1070:	13 86       	std	Z+11, r1	; 0x0b
		results->rcvstate = irparams.rcvstate;
    1072:	04 97       	sbiw	r24, 0x04	; 4
    1074:	dc 01       	movw	r26, r24
    1076:	8c 91       	ld	r24, X
    1078:	84 87       	std	Z+12, r24	; 0x0c
    return 1;
}

static __inline__ void __iSeiParam(const uint8_t *__s)
{
    sei();
    107a:	78 94       	sei
	}	
	if (ir_decode_nec(results)) return true;
    107c:	cf 01       	movw	r24, r30
    107e:	0e 94 50 07 	call	0xea0	; 0xea0 <ir_decode_nec>
    1082:	88 23       	and	r24, r24
    1084:	21 f4       	brne	.+8      	; 0x108e <ir_decode+0x3a>
	ir_resume(); // Throw away and start over
    1086:	0e 94 22 08 	call	0x1044	; 0x1044 <ir_resume>
	return false;
    108a:	80 e0       	ldi	r24, 0x00	; 0
    108c:	08 95       	ret
		results->rawbuf   = irparams.rawbuf;
		results->rawlen   = irparams.rawlen;
		results->overflow = irparams.overflow;
		results->rcvstate = irparams.rcvstate;
	}	
	if (ir_decode_nec(results)) return true;
    108e:	81 e0       	ldi	r24, 0x01	; 1
	ir_resume(); // Throw away and start over
	return false;
} // ir_decode()
    1090:	08 95       	ret

00001092 <std_cmd>:
             IR sensor. If so, it executes it.
  Variables: -
  Returns  : -
  ------------------------------------------------------------------*/
void std_cmd(void)
{
    1092:	0f 93       	push	r16
    1094:	1f 93       	push	r17
    1096:	cf 93       	push	r28
    1098:	df 93       	push	r29
    109a:	cd b7       	in	r28, 0x3d	; 61
    109c:	de b7       	in	r29, 0x3e	; 62
    109e:	64 97       	sbiw	r28, 0x14	; 20
    10a0:	0f b6       	in	r0, 0x3f	; 63
    10a2:	f8 94       	cli
    10a4:	de bf       	out	0x3e, r29	; 62
    10a6:	0f be       	out	0x3f, r0	; 63
    10a8:	cd bf       	out	0x3d, r28	; 61
	static uint8_t cmd_state = NO_CMD;
	static uint8_t idx = 0;
	static uint8_t inp_arr[6];
	char           s[20];
	
	switch (cmd_state)
    10aa:	80 91 06 03 	lds	r24, 0x0306
    10ae:	82 30       	cpi	r24, 0x02	; 2
    10b0:	d9 f1       	breq	.+118    	; 0x1128 <std_cmd+0x96>
    10b2:	83 30       	cpi	r24, 0x03	; 3
    10b4:	30 f4       	brcc	.+12     	; 0x10c2 <std_cmd+0x30>
    10b6:	88 23       	and	r24, r24
    10b8:	71 f0       	breq	.+28     	; 0x10d6 <std_cmd+0x44>
    10ba:	81 30       	cpi	r24, 0x01	; 1
    10bc:	09 f0       	breq	.+2      	; 0x10c0 <std_cmd+0x2e>
    10be:	41 c1       	rjmp	.+642    	; 0x1342 <std_cmd+0x2b0>
    10c0:	13 c0       	rjmp	.+38     	; 0x10e8 <std_cmd+0x56>
    10c2:	84 30       	cpi	r24, 0x04	; 4
    10c4:	09 f4       	brne	.+2      	; 0x10c8 <std_cmd+0x36>
    10c6:	b1 c0       	rjmp	.+354    	; 0x122a <std_cmd+0x198>
    10c8:	84 30       	cpi	r24, 0x04	; 4
    10ca:	08 f4       	brcc	.+2      	; 0x10ce <std_cmd+0x3c>
    10cc:	67 c0       	rjmp	.+206    	; 0x119c <std_cmd+0x10a>
    10ce:	85 30       	cpi	r24, 0x05	; 5
    10d0:	09 f0       	breq	.+2      	; 0x10d4 <std_cmd+0x42>
    10d2:	37 c1       	rjmp	.+622    	; 0x1342 <std_cmd+0x2b0>
    10d4:	e4 c0       	rjmp	.+456    	; 0x129e <std_cmd+0x20c>
	{
		case NO_CMD:   if (ir_remote_key == IR_ASTERISK) 
    10d6:	80 91 5b 02 	lds	r24, 0x025B
    10da:	8f 30       	cpi	r24, 0x0F	; 15
    10dc:	09 f0       	breq	.+2      	; 0x10e0 <std_cmd+0x4e>
    10de:	31 c1       	rjmp	.+610    	; 0x1342 <std_cmd+0x2b0>
					      cmd_state = CMD_MODE;
    10e0:	81 e0       	ldi	r24, 0x01	; 1
    10e2:	80 93 06 03 	sts	0x0306, r24
    10e6:	2d c1       	rjmp	.+602    	; 0x1342 <std_cmd+0x2b0>
					   break;
		case CMD_MODE: if (ir_remote_key == IR_1)
    10e8:	80 91 5b 02 	lds	r24, 0x025B
    10ec:	81 30       	cpi	r24, 0x01	; 1
    10ee:	51 f4       	brne	.+20     	; 0x1104 <std_cmd+0x72>
					   {
						   xputs("Enter Time (hhmmss):");
    10f0:	87 ed       	ldi	r24, 0xD7	; 215
    10f2:	91 e0       	ldi	r25, 0x01	; 1
    10f4:	0e 94 c2 12 	call	0x2584	; 0x2584 <xputs>
						   idx  = 0;
    10f8:	10 92 07 03 	sts	0x0307, r1
						   cmd_state = CMD_TIME;
    10fc:	82 e0       	ldi	r24, 0x02	; 2
    10fe:	80 93 06 03 	sts	0x0306, r24
    1102:	1f c1       	rjmp	.+574    	; 0x1342 <std_cmd+0x2b0>
					   }			
					   else if (ir_remote_key == IR_2)
    1104:	82 30       	cpi	r24, 0x02	; 2
    1106:	51 f4       	brne	.+20     	; 0x111c <std_cmd+0x8a>
					   {
						   xputs("Enter Date (ddmmyy:");
    1108:	8c ee       	ldi	r24, 0xEC	; 236
    110a:	91 e0       	ldi	r25, 0x01	; 1
    110c:	0e 94 c2 12 	call	0x2584	; 0x2584 <xputs>
						   idx  = 0;
    1110:	10 92 07 03 	sts	0x0307, r1
						   cmd_state = CMD_DATE;
    1114:	84 e0       	ldi	r24, 0x04	; 4
    1116:	80 93 06 03 	sts	0x0306, r24
    111a:	13 c1       	rjmp	.+550    	; 0x1342 <std_cmd+0x2b0>
					   }		   
					   else if (ir_remote_key == IR_HASH)
    111c:	80 31       	cpi	r24, 0x10	; 16
    111e:	09 f0       	breq	.+2      	; 0x1122 <std_cmd+0x90>
    1120:	10 c1       	rjmp	.+544    	; 0x1342 <std_cmd+0x2b0>
					      cmd_state = NO_CMD;
    1122:	10 92 06 03 	sts	0x0306, r1
    1126:	0d c1       	rjmp	.+538    	; 0x1342 <std_cmd+0x2b0>
					   break;
		case CMD_TIME: if (ir_remote_key <= IR_9)
    1128:	20 91 5b 02 	lds	r18, 0x025B
    112c:	2a 30       	cpi	r18, 0x0A	; 10
    112e:	08 f0       	brcs	.+2      	; 0x1132 <std_cmd+0xa0>
    1130:	08 c1       	rjmp	.+528    	; 0x1342 <std_cmd+0x2b0>
					   {
						   inp_arr[idx] = ir_remote_key;
    1132:	80 91 07 03 	lds	r24, 0x0307
    1136:	e8 e0       	ldi	r30, 0x08	; 8
    1138:	f3 e0       	ldi	r31, 0x03	; 3
    113a:	e8 0f       	add	r30, r24
    113c:	f1 1d       	adc	r31, r1
    113e:	20 83       	st	Z, r18
						   sprintf(s,"%d",ir_remote_key);
    1140:	00 d0       	rcall	.+0      	; 0x1142 <std_cmd+0xb0>
    1142:	00 d0       	rcall	.+0      	; 0x1144 <std_cmd+0xb2>
    1144:	00 d0       	rcall	.+0      	; 0x1146 <std_cmd+0xb4>
    1146:	ed b7       	in	r30, 0x3d	; 61
    1148:	fe b7       	in	r31, 0x3e	; 62
    114a:	31 96       	adiw	r30, 0x01	; 1
    114c:	8e 01       	movw	r16, r28
    114e:	0f 5f       	subi	r16, 0xFF	; 255
    1150:	1f 4f       	sbci	r17, 0xFF	; 255
    1152:	ad b7       	in	r26, 0x3d	; 61
    1154:	be b7       	in	r27, 0x3e	; 62
    1156:	12 96       	adiw	r26, 0x02	; 2
    1158:	1c 93       	st	X, r17
    115a:	0e 93       	st	-X, r16
    115c:	11 97       	sbiw	r26, 0x01	; 1
    115e:	80 e0       	ldi	r24, 0x00	; 0
    1160:	92 e0       	ldi	r25, 0x02	; 2
    1162:	93 83       	std	Z+3, r25	; 0x03
    1164:	82 83       	std	Z+2, r24	; 0x02
    1166:	24 83       	std	Z+4, r18	; 0x04
    1168:	15 82       	std	Z+5, r1	; 0x05
    116a:	0e 94 e5 15 	call	0x2bca	; 0x2bca <sprintf>
						   xputs(s);
    116e:	8d b7       	in	r24, 0x3d	; 61
    1170:	9e b7       	in	r25, 0x3e	; 62
    1172:	06 96       	adiw	r24, 0x06	; 6
    1174:	0f b6       	in	r0, 0x3f	; 63
    1176:	f8 94       	cli
    1178:	9e bf       	out	0x3e, r25	; 62
    117a:	0f be       	out	0x3f, r0	; 63
    117c:	8d bf       	out	0x3d, r24	; 61
    117e:	c8 01       	movw	r24, r16
    1180:	0e 94 c2 12 	call	0x2584	; 0x2584 <xputs>
						   if (++idx > 5) cmd_state = TIME_EXEC;
    1184:	80 91 07 03 	lds	r24, 0x0307
    1188:	8f 5f       	subi	r24, 0xFF	; 255
    118a:	80 93 07 03 	sts	0x0307, r24
    118e:	86 30       	cpi	r24, 0x06	; 6
    1190:	08 f4       	brcc	.+2      	; 0x1194 <std_cmd+0x102>
    1192:	d7 c0       	rjmp	.+430    	; 0x1342 <std_cmd+0x2b0>
    1194:	83 e0       	ldi	r24, 0x03	; 3
    1196:	80 93 06 03 	sts	0x0306, r24
    119a:	d3 c0       	rjmp	.+422    	; 0x1342 <std_cmd+0x2b0>
					   } // if
					   break;
		case TIME_EXEC: if (ir_remote_key == IR_HASH)
    119c:	80 91 5b 02 	lds	r24, 0x025B
    11a0:	80 31       	cpi	r24, 0x10	; 16
    11a2:	09 f0       	breq	.+2      	; 0x11a6 <std_cmd+0x114>
    11a4:	ce c0       	rjmp	.+412    	; 0x1342 <std_cmd+0x2b0>
						{
							xputs("Set-Time EXEC:");
    11a6:	83 e0       	ldi	r24, 0x03	; 3
    11a8:	92 e0       	ldi	r25, 0x02	; 2
    11aa:	0e 94 c2 12 	call	0x2584	; 0x2584 <xputs>
							sprintf(s,"%d%d:%d%d:%d%d\n",inp_arr[0],inp_arr[1],inp_arr[2],
    11ae:	ad b7       	in	r26, 0x3d	; 61
    11b0:	be b7       	in	r27, 0x3e	; 62
    11b2:	50 97       	sbiw	r26, 0x10	; 16
    11b4:	0f b6       	in	r0, 0x3f	; 63
    11b6:	f8 94       	cli
    11b8:	be bf       	out	0x3e, r27	; 62
    11ba:	0f be       	out	0x3f, r0	; 63
    11bc:	ad bf       	out	0x3d, r26	; 61
    11be:	ed b7       	in	r30, 0x3d	; 61
    11c0:	fe b7       	in	r31, 0x3e	; 62
    11c2:	31 96       	adiw	r30, 0x01	; 1
    11c4:	8e 01       	movw	r16, r28
    11c6:	0f 5f       	subi	r16, 0xFF	; 255
    11c8:	1f 4f       	sbci	r17, 0xFF	; 255
    11ca:	12 96       	adiw	r26, 0x02	; 2
    11cc:	1c 93       	st	X, r17
    11ce:	0e 93       	st	-X, r16
    11d0:	11 97       	sbiw	r26, 0x01	; 1
    11d2:	82 e1       	ldi	r24, 0x12	; 18
    11d4:	92 e0       	ldi	r25, 0x02	; 2
    11d6:	93 83       	std	Z+3, r25	; 0x03
    11d8:	82 83       	std	Z+2, r24	; 0x02
    11da:	80 91 08 03 	lds	r24, 0x0308
    11de:	84 83       	std	Z+4, r24	; 0x04
    11e0:	15 82       	std	Z+5, r1	; 0x05
    11e2:	80 91 09 03 	lds	r24, 0x0309
    11e6:	86 83       	std	Z+6, r24	; 0x06
    11e8:	17 82       	std	Z+7, r1	; 0x07
    11ea:	80 91 0a 03 	lds	r24, 0x030A
    11ee:	80 87       	std	Z+8, r24	; 0x08
    11f0:	11 86       	std	Z+9, r1	; 0x09
    11f2:	80 91 0b 03 	lds	r24, 0x030B
    11f6:	82 87       	std	Z+10, r24	; 0x0a
    11f8:	13 86       	std	Z+11, r1	; 0x0b
    11fa:	80 91 0c 03 	lds	r24, 0x030C
    11fe:	84 87       	std	Z+12, r24	; 0x0c
    1200:	15 86       	std	Z+13, r1	; 0x0d
    1202:	80 91 0d 03 	lds	r24, 0x030D
    1206:	86 87       	std	Z+14, r24	; 0x0e
    1208:	17 86       	std	Z+15, r1	; 0x0f
    120a:	0e 94 e5 15 	call	0x2bca	; 0x2bca <sprintf>
							                             inp_arr[3],inp_arr[4],inp_arr[5]);
							xputs(s);
    120e:	8d b7       	in	r24, 0x3d	; 61
    1210:	9e b7       	in	r25, 0x3e	; 62
    1212:	40 96       	adiw	r24, 0x10	; 16
    1214:	0f b6       	in	r0, 0x3f	; 63
    1216:	f8 94       	cli
    1218:	9e bf       	out	0x3e, r25	; 62
    121a:	0f be       	out	0x3f, r0	; 63
    121c:	8d bf       	out	0x3d, r24	; 61
    121e:	c8 01       	movw	r24, r16
    1220:	0e 94 c2 12 	call	0x2584	; 0x2584 <xputs>
							cmd_state = NO_CMD;
    1224:	10 92 06 03 	sts	0x0306, r1
    1228:	8c c0       	rjmp	.+280    	; 0x1342 <std_cmd+0x2b0>
						} // if
						break;
		case CMD_DATE:  if (ir_remote_key <= IR_9)
    122a:	20 91 5b 02 	lds	r18, 0x025B
    122e:	2a 30       	cpi	r18, 0x0A	; 10
    1230:	08 f0       	brcs	.+2      	; 0x1234 <std_cmd+0x1a2>
    1232:	87 c0       	rjmp	.+270    	; 0x1342 <std_cmd+0x2b0>
						{
							inp_arr[idx] = ir_remote_key;
    1234:	80 91 07 03 	lds	r24, 0x0307
    1238:	e8 e0       	ldi	r30, 0x08	; 8
    123a:	f3 e0       	ldi	r31, 0x03	; 3
    123c:	e8 0f       	add	r30, r24
    123e:	f1 1d       	adc	r31, r1
    1240:	20 83       	st	Z, r18
							sprintf(s,"%d",ir_remote_key);
    1242:	00 d0       	rcall	.+0      	; 0x1244 <std_cmd+0x1b2>
    1244:	00 d0       	rcall	.+0      	; 0x1246 <std_cmd+0x1b4>
    1246:	00 d0       	rcall	.+0      	; 0x1248 <std_cmd+0x1b6>
    1248:	ed b7       	in	r30, 0x3d	; 61
    124a:	fe b7       	in	r31, 0x3e	; 62
    124c:	31 96       	adiw	r30, 0x01	; 1
    124e:	8e 01       	movw	r16, r28
    1250:	0f 5f       	subi	r16, 0xFF	; 255
    1252:	1f 4f       	sbci	r17, 0xFF	; 255
    1254:	ad b7       	in	r26, 0x3d	; 61
    1256:	be b7       	in	r27, 0x3e	; 62
    1258:	12 96       	adiw	r26, 0x02	; 2
    125a:	1c 93       	st	X, r17
    125c:	0e 93       	st	-X, r16
    125e:	11 97       	sbiw	r26, 0x01	; 1
    1260:	80 e0       	ldi	r24, 0x00	; 0
    1262:	92 e0       	ldi	r25, 0x02	; 2
    1264:	93 83       	std	Z+3, r25	; 0x03
    1266:	82 83       	std	Z+2, r24	; 0x02
    1268:	24 83       	std	Z+4, r18	; 0x04
    126a:	15 82       	std	Z+5, r1	; 0x05
    126c:	0e 94 e5 15 	call	0x2bca	; 0x2bca <sprintf>
							xputs(s);
    1270:	8d b7       	in	r24, 0x3d	; 61
    1272:	9e b7       	in	r25, 0x3e	; 62
    1274:	06 96       	adiw	r24, 0x06	; 6
    1276:	0f b6       	in	r0, 0x3f	; 63
    1278:	f8 94       	cli
    127a:	9e bf       	out	0x3e, r25	; 62
    127c:	0f be       	out	0x3f, r0	; 63
    127e:	8d bf       	out	0x3d, r24	; 61
    1280:	c8 01       	movw	r24, r16
    1282:	0e 94 c2 12 	call	0x2584	; 0x2584 <xputs>
							if (++idx > 5) cmd_state = DATE_EXEC;
    1286:	80 91 07 03 	lds	r24, 0x0307
    128a:	8f 5f       	subi	r24, 0xFF	; 255
    128c:	80 93 07 03 	sts	0x0307, r24
    1290:	86 30       	cpi	r24, 0x06	; 6
    1292:	08 f4       	brcc	.+2      	; 0x1296 <std_cmd+0x204>
    1294:	56 c0       	rjmp	.+172    	; 0x1342 <std_cmd+0x2b0>
    1296:	85 e0       	ldi	r24, 0x05	; 5
    1298:	80 93 06 03 	sts	0x0306, r24
    129c:	52 c0       	rjmp	.+164    	; 0x1342 <std_cmd+0x2b0>
						} // if
						break;
		case DATE_EXEC: if (ir_remote_key == IR_HASH)
    129e:	80 91 5b 02 	lds	r24, 0x025B
    12a2:	80 31       	cpi	r24, 0x10	; 16
    12a4:	09 f0       	breq	.+2      	; 0x12a8 <std_cmd+0x216>
    12a6:	4d c0       	rjmp	.+154    	; 0x1342 <std_cmd+0x2b0>
						{
							xputs("Set-Date EXEC:");
    12a8:	82 e2       	ldi	r24, 0x22	; 34
    12aa:	92 e0       	ldi	r25, 0x02	; 2
    12ac:	0e 94 c2 12 	call	0x2584	; 0x2584 <xputs>
							sprintf(s,"%d%d-%d%d-%d\n",inp_arr[0],inp_arr[1],inp_arr[2],
    12b0:	ad b7       	in	r26, 0x3d	; 61
    12b2:	be b7       	in	r27, 0x3e	; 62
    12b4:	1e 97       	sbiw	r26, 0x0e	; 14
    12b6:	0f b6       	in	r0, 0x3f	; 63
    12b8:	f8 94       	cli
    12ba:	be bf       	out	0x3e, r27	; 62
    12bc:	0f be       	out	0x3f, r0	; 63
    12be:	ad bf       	out	0x3d, r26	; 61
    12c0:	ed b7       	in	r30, 0x3d	; 61
    12c2:	fe b7       	in	r31, 0x3e	; 62
    12c4:	31 96       	adiw	r30, 0x01	; 1
    12c6:	8e 01       	movw	r16, r28
    12c8:	0f 5f       	subi	r16, 0xFF	; 255
    12ca:	1f 4f       	sbci	r17, 0xFF	; 255
    12cc:	12 96       	adiw	r26, 0x02	; 2
    12ce:	1c 93       	st	X, r17
    12d0:	0e 93       	st	-X, r16
    12d2:	11 97       	sbiw	r26, 0x01	; 1
    12d4:	81 e3       	ldi	r24, 0x31	; 49
    12d6:	92 e0       	ldi	r25, 0x02	; 2
    12d8:	93 83       	std	Z+3, r25	; 0x03
    12da:	82 83       	std	Z+2, r24	; 0x02
    12dc:	80 91 08 03 	lds	r24, 0x0308
    12e0:	84 83       	std	Z+4, r24	; 0x04
    12e2:	15 82       	std	Z+5, r1	; 0x05
    12e4:	80 91 09 03 	lds	r24, 0x0309
    12e8:	86 83       	std	Z+6, r24	; 0x06
    12ea:	17 82       	std	Z+7, r1	; 0x07
    12ec:	80 91 0a 03 	lds	r24, 0x030A
    12f0:	80 87       	std	Z+8, r24	; 0x08
    12f2:	11 86       	std	Z+9, r1	; 0x09
    12f4:	80 91 0b 03 	lds	r24, 0x030B
    12f8:	82 87       	std	Z+10, r24	; 0x0a
    12fa:	13 86       	std	Z+11, r1	; 0x0b
														 inp_arr[3],2000+10*inp_arr[4]+inp_arr[5]);
    12fc:	80 91 0c 03 	lds	r24, 0x030C
    1300:	90 e0       	ldi	r25, 0x00	; 0
    1302:	88 0f       	add	r24, r24
    1304:	99 1f       	adc	r25, r25
    1306:	9c 01       	movw	r18, r24
    1308:	22 0f       	add	r18, r18
    130a:	33 1f       	adc	r19, r19
    130c:	22 0f       	add	r18, r18
    130e:	33 1f       	adc	r19, r19
    1310:	82 0f       	add	r24, r18
    1312:	93 1f       	adc	r25, r19
    1314:	80 53       	subi	r24, 0x30	; 48
    1316:	98 4f       	sbci	r25, 0xF8	; 248
						} // if
						break;
		case DATE_EXEC: if (ir_remote_key == IR_HASH)
						{
							xputs("Set-Date EXEC:");
							sprintf(s,"%d%d-%d%d-%d\n",inp_arr[0],inp_arr[1],inp_arr[2],
    1318:	20 91 0d 03 	lds	r18, 0x030D
    131c:	82 0f       	add	r24, r18
    131e:	91 1d       	adc	r25, r1
    1320:	95 87       	std	Z+13, r25	; 0x0d
    1322:	84 87       	std	Z+12, r24	; 0x0c
    1324:	0e 94 e5 15 	call	0x2bca	; 0x2bca <sprintf>
														 inp_arr[3],2000+10*inp_arr[4]+inp_arr[5]);
							xputs(s);
    1328:	8d b7       	in	r24, 0x3d	; 61
    132a:	9e b7       	in	r25, 0x3e	; 62
    132c:	0e 96       	adiw	r24, 0x0e	; 14
    132e:	0f b6       	in	r0, 0x3f	; 63
    1330:	f8 94       	cli
    1332:	9e bf       	out	0x3e, r25	; 62
    1334:	0f be       	out	0x3f, r0	; 63
    1336:	8d bf       	out	0x3d, r24	; 61
    1338:	c8 01       	movw	r24, r16
    133a:	0e 94 c2 12 	call	0x2584	; 0x2584 <xputs>
							cmd_state = NO_CMD;
    133e:	10 92 06 03 	sts	0x0306, r1
						} // if
						break;
	} // switch
} // std_cmd()
    1342:	64 96       	adiw	r28, 0x14	; 20
    1344:	0f b6       	in	r0, 0x3f	; 63
    1346:	f8 94       	cli
    1348:	de bf       	out	0x3e, r29	; 62
    134a:	0f be       	out	0x3f, r0	; 63
    134c:	cd bf       	out	0x3d, r28	; 61
    134e:	df 91       	pop	r29
    1350:	cf 91       	pop	r28
    1352:	1f 91       	pop	r17
    1354:	0f 91       	pop	r16
    1356:	08 95       	ret

00001358 <ir_receive>:
             library. It can be called every 500 msec.
  Variables: -
  Returns  : -
  ------------------------------------------------------------------*/
void ir_receive(void)
{
    1358:	0f 93       	push	r16
    135a:	1f 93       	push	r17
    135c:	cf 93       	push	r28
    135e:	df 93       	push	r29
    1360:	cd b7       	in	r28, 0x3d	; 61
    1362:	de b7       	in	r29, 0x3e	; 62
    1364:	64 97       	sbiw	r28, 0x14	; 20
    1366:	0f b6       	in	r0, 0x3f	; 63
    1368:	f8 94       	cli
    136a:	de bf       	out	0x3e, r29	; 62
    136c:	0f be       	out	0x3f, r0	; 63
    136e:	cd bf       	out	0x3d, r28	; 61
	char    s[20];
	static  uint8_t cmd_rcv = false;
	
	if (ir_decode(&results)) // have we received an IR signal?
    1370:	80 e0       	ldi	r24, 0x00	; 0
    1372:	94 e0       	ldi	r25, 0x04	; 4
    1374:	0e 94 2a 08 	call	0x1054	; 0x1054 <ir_decode>
    1378:	88 23       	and	r24, r24
    137a:	09 f4       	brne	.+2      	; 0x137e <ir_receive+0x26>
    137c:	58 c1       	rjmp	.+688    	; 0x162e <ir_receive+0x2d6>
	{
	  switch (results.value)
    137e:	80 91 00 04 	lds	r24, 0x0400
    1382:	90 91 01 04 	lds	r25, 0x0401
    1386:	a0 91 02 04 	lds	r26, 0x0402
    138a:	b0 91 03 04 	lds	r27, 0x0403
    138e:	8d 3a       	cpi	r24, 0xAD	; 173
    1390:	22 e5       	ldi	r18, 0x52	; 82
    1392:	92 07       	cpc	r25, r18
    1394:	2f ef       	ldi	r18, 0xFF	; 255
    1396:	a2 07       	cpc	r26, r18
    1398:	20 e0       	ldi	r18, 0x00	; 0
    139a:	b2 07       	cpc	r27, r18
    139c:	09 f4       	brne	.+2      	; 0x13a0 <ir_receive+0x48>
    139e:	e8 c0       	rjmp	.+464    	; 0x1570 <ir_receive+0x218>
    13a0:	8e 3a       	cpi	r24, 0xAE	; 174
    13a2:	22 e5       	ldi	r18, 0x52	; 82
    13a4:	92 07       	cpc	r25, r18
    13a6:	2f ef       	ldi	r18, 0xFF	; 255
    13a8:	a2 07       	cpc	r26, r18
    13aa:	20 e0       	ldi	r18, 0x00	; 0
    13ac:	b2 07       	cpc	r27, r18
    13ae:	08 f0       	brcs	.+2      	; 0x13b2 <ir_receive+0x5a>
    13b0:	5b c0       	rjmp	.+182    	; 0x1468 <ir_receive+0x110>
    13b2:	8d 3d       	cpi	r24, 0xDD	; 221
    13b4:	22 e2       	ldi	r18, 0x22	; 34
    13b6:	92 07       	cpc	r25, r18
    13b8:	2f ef       	ldi	r18, 0xFF	; 255
    13ba:	a2 07       	cpc	r26, r18
    13bc:	20 e0       	ldi	r18, 0x00	; 0
    13be:	b2 07       	cpc	r27, r18
    13c0:	09 f4       	brne	.+2      	; 0x13c4 <ir_receive+0x6c>
    13c2:	c6 c0       	rjmp	.+396    	; 0x1550 <ir_receive+0x1f8>
    13c4:	8e 3d       	cpi	r24, 0xDE	; 222
    13c6:	22 e2       	ldi	r18, 0x22	; 34
    13c8:	92 07       	cpc	r25, r18
    13ca:	2f ef       	ldi	r18, 0xFF	; 255
    13cc:	a2 07       	cpc	r26, r18
    13ce:	20 e0       	ldi	r18, 0x00	; 0
    13d0:	b2 07       	cpc	r27, r18
    13d2:	e0 f4       	brcc	.+56     	; 0x140c <ir_receive+0xb4>
    13d4:	8f 3e       	cpi	r24, 0xEF	; 239
    13d6:	20 e1       	ldi	r18, 0x10	; 16
    13d8:	92 07       	cpc	r25, r18
    13da:	2f ef       	ldi	r18, 0xFF	; 255
    13dc:	a2 07       	cpc	r26, r18
    13de:	20 e0       	ldi	r18, 0x00	; 0
    13e0:	b2 07       	cpc	r27, r18
    13e2:	09 f4       	brne	.+2      	; 0x13e6 <ir_receive+0x8e>
    13e4:	e4 c0       	rjmp	.+456    	; 0x15ae <ir_receive+0x256>
    13e6:	87 3e       	cpi	r24, 0xE7	; 231
    13e8:	28 e1       	ldi	r18, 0x18	; 24
    13ea:	92 07       	cpc	r25, r18
    13ec:	2f ef       	ldi	r18, 0xFF	; 255
    13ee:	a2 07       	cpc	r26, r18
    13f0:	20 e0       	ldi	r18, 0x00	; 0
    13f2:	b2 07       	cpc	r27, r18
    13f4:	09 f4       	brne	.+2      	; 0x13f8 <ir_receive+0xa0>
    13f6:	d3 c0       	rjmp	.+422    	; 0x159e <ir_receive+0x246>
    13f8:	8d 3f       	cpi	r24, 0xFD	; 253
    13fa:	22 e0       	ldi	r18, 0x02	; 2
    13fc:	92 07       	cpc	r25, r18
    13fe:	2f ef       	ldi	r18, 0xFF	; 255
    1400:	a2 07       	cpc	r26, r18
    1402:	20 e0       	ldi	r18, 0x00	; 0
    1404:	b2 07       	cpc	r27, r18
    1406:	09 f0       	breq	.+2      	; 0x140a <ir_receive+0xb2>
    1408:	e2 c0       	rjmp	.+452    	; 0x15ce <ir_receive+0x276>
    140a:	aa c0       	rjmp	.+340    	; 0x1560 <ir_receive+0x208>
    140c:	87 3c       	cpi	r24, 0xC7	; 199
    140e:	28 e3       	ldi	r18, 0x38	; 56
    1410:	92 07       	cpc	r25, r18
    1412:	2f ef       	ldi	r18, 0xFF	; 255
    1414:	a2 07       	cpc	r26, r18
    1416:	20 e0       	ldi	r18, 0x00	; 0
    1418:	b2 07       	cpc	r27, r18
    141a:	09 f4       	brne	.+2      	; 0x141e <ir_receive+0xc6>
    141c:	cc c0       	rjmp	.+408    	; 0x15b6 <ir_receive+0x25e>
    141e:	88 3c       	cpi	r24, 0xC8	; 200
    1420:	28 e3       	ldi	r18, 0x38	; 56
    1422:	92 07       	cpc	r25, r18
    1424:	2f ef       	ldi	r18, 0xFF	; 255
    1426:	a2 07       	cpc	r26, r18
    1428:	20 e0       	ldi	r18, 0x00	; 0
    142a:	b2 07       	cpc	r27, r18
    142c:	50 f4       	brcc	.+20     	; 0x1442 <ir_receive+0xea>
    142e:	8f 3c       	cpi	r24, 0xCF	; 207
    1430:	20 e3       	ldi	r18, 0x30	; 48
    1432:	92 07       	cpc	r25, r18
    1434:	2f ef       	ldi	r18, 0xFF	; 255
    1436:	a2 07       	cpc	r26, r18
    1438:	20 e0       	ldi	r18, 0x00	; 0
    143a:	b2 07       	cpc	r27, r18
    143c:	09 f0       	breq	.+2      	; 0x1440 <ir_receive+0xe8>
    143e:	c7 c0       	rjmp	.+398    	; 0x15ce <ir_receive+0x276>
    1440:	aa c0       	rjmp	.+340    	; 0x1596 <ir_receive+0x23e>
    1442:	8d 3b       	cpi	r24, 0xBD	; 189
    1444:	22 e4       	ldi	r18, 0x42	; 66
    1446:	92 07       	cpc	r25, r18
    1448:	2f ef       	ldi	r18, 0xFF	; 255
    144a:	a2 07       	cpc	r26, r18
    144c:	20 e0       	ldi	r18, 0x00	; 0
    144e:	b2 07       	cpc	r27, r18
    1450:	09 f4       	brne	.+2      	; 0x1454 <ir_receive+0xfc>
    1452:	8a c0       	rjmp	.+276    	; 0x1568 <ir_receive+0x210>
    1454:	85 3b       	cpi	r24, 0xB5	; 181
    1456:	2a e4       	ldi	r18, 0x4A	; 74
    1458:	92 07       	cpc	r25, r18
    145a:	2f ef       	ldi	r18, 0xFF	; 255
    145c:	a2 07       	cpc	r26, r18
    145e:	20 e0       	ldi	r18, 0x00	; 0
    1460:	b2 07       	cpc	r27, r18
    1462:	09 f0       	breq	.+2      	; 0x1466 <ir_receive+0x10e>
    1464:	b4 c0       	rjmp	.+360    	; 0x15ce <ir_receive+0x276>
    1466:	88 c0       	rjmp	.+272    	; 0x1578 <ir_receive+0x220>
    1468:	87 36       	cpi	r24, 0x67	; 103
    146a:	28 e9       	ldi	r18, 0x98	; 152
    146c:	92 07       	cpc	r25, r18
    146e:	2f ef       	ldi	r18, 0xFF	; 255
    1470:	a2 07       	cpc	r26, r18
    1472:	20 e0       	ldi	r18, 0x00	; 0
    1474:	b2 07       	cpc	r27, r18
    1476:	09 f4       	brne	.+2      	; 0x147a <ir_receive+0x122>
    1478:	86 c0       	rjmp	.+268    	; 0x1586 <ir_receive+0x22e>
    147a:	88 36       	cpi	r24, 0x68	; 104
    147c:	28 e9       	ldi	r18, 0x98	; 152
    147e:	92 07       	cpc	r25, r18
    1480:	2f ef       	ldi	r18, 0xFF	; 255
    1482:	a2 07       	cpc	r26, r18
    1484:	20 e0       	ldi	r18, 0x00	; 0
    1486:	b2 07       	cpc	r27, r18
    1488:	70 f5       	brcc	.+92     	; 0x14e6 <ir_receive+0x18e>
    148a:	8d 39       	cpi	r24, 0x9D	; 157
    148c:	22 e6       	ldi	r18, 0x62	; 98
    148e:	92 07       	cpc	r25, r18
    1490:	2f ef       	ldi	r18, 0xFF	; 255
    1492:	a2 07       	cpc	r26, r18
    1494:	20 e0       	ldi	r18, 0x00	; 0
    1496:	b2 07       	cpc	r27, r18
    1498:	09 f4       	brne	.+2      	; 0x149c <ir_receive+0x144>
    149a:	52 c0       	rjmp	.+164    	; 0x1540 <ir_receive+0x1e8>
    149c:	8e 39       	cpi	r24, 0x9E	; 158
    149e:	22 e6       	ldi	r18, 0x62	; 98
    14a0:	92 07       	cpc	r25, r18
    14a2:	2f ef       	ldi	r18, 0xFF	; 255
    14a4:	a2 07       	cpc	r26, r18
    14a6:	20 e0       	ldi	r18, 0x00	; 0
    14a8:	b2 07       	cpc	r27, r18
    14aa:	50 f4       	brcc	.+20     	; 0x14c0 <ir_receive+0x168>
    14ac:	85 3a       	cpi	r24, 0xA5	; 165
    14ae:	2a e5       	ldi	r18, 0x5A	; 90
    14b0:	92 07       	cpc	r25, r18
    14b2:	2f ef       	ldi	r18, 0xFF	; 255
    14b4:	a2 07       	cpc	r26, r18
    14b6:	20 e0       	ldi	r18, 0x00	; 0
    14b8:	b2 07       	cpc	r27, r18
    14ba:	09 f0       	breq	.+2      	; 0x14be <ir_receive+0x166>
    14bc:	88 c0       	rjmp	.+272    	; 0x15ce <ir_receive+0x276>
    14be:	7f c0       	rjmp	.+254    	; 0x15be <ir_receive+0x266>
    14c0:	87 39       	cpi	r24, 0x97	; 151
    14c2:	28 e6       	ldi	r18, 0x68	; 104
    14c4:	92 07       	cpc	r25, r18
    14c6:	2f ef       	ldi	r18, 0xFF	; 255
    14c8:	a2 07       	cpc	r26, r18
    14ca:	20 e0       	ldi	r18, 0x00	; 0
    14cc:	b2 07       	cpc	r27, r18
    14ce:	09 f4       	brne	.+2      	; 0x14d2 <ir_receive+0x17a>
    14d0:	56 c0       	rjmp	.+172    	; 0x157e <ir_receive+0x226>
    14d2:	85 38       	cpi	r24, 0x85	; 133
    14d4:	2a e7       	ldi	r18, 0x7A	; 122
    14d6:	92 07       	cpc	r25, r18
    14d8:	2f ef       	ldi	r18, 0xFF	; 255
    14da:	a2 07       	cpc	r26, r18
    14dc:	20 e0       	ldi	r18, 0x00	; 0
    14de:	b2 07       	cpc	r27, r18
    14e0:	09 f0       	breq	.+2      	; 0x14e4 <ir_receive+0x18c>
    14e2:	75 c0       	rjmp	.+234    	; 0x15ce <ir_receive+0x276>
    14e4:	60 c0       	rjmp	.+192    	; 0x15a6 <ir_receive+0x24e>
    14e6:	8f 34       	cpi	r24, 0x4F	; 79
    14e8:	20 eb       	ldi	r18, 0xB0	; 176
    14ea:	92 07       	cpc	r25, r18
    14ec:	2f ef       	ldi	r18, 0xFF	; 255
    14ee:	a2 07       	cpc	r26, r18
    14f0:	20 e0       	ldi	r18, 0x00	; 0
    14f2:	b2 07       	cpc	r27, r18
    14f4:	09 f4       	brne	.+2      	; 0x14f8 <ir_receive+0x1a0>
    14f6:	4b c0       	rjmp	.+150    	; 0x158e <ir_receive+0x236>
    14f8:	80 35       	cpi	r24, 0x50	; 80
    14fa:	20 eb       	ldi	r18, 0xB0	; 176
    14fc:	92 07       	cpc	r25, r18
    14fe:	2f ef       	ldi	r18, 0xFF	; 255
    1500:	a2 07       	cpc	r26, r18
    1502:	20 e0       	ldi	r18, 0x00	; 0
    1504:	b2 07       	cpc	r27, r18
    1506:	50 f4       	brcc	.+20     	; 0x151c <ir_receive+0x1c4>
    1508:	87 35       	cpi	r24, 0x57	; 87
    150a:	28 ea       	ldi	r18, 0xA8	; 168
    150c:	92 07       	cpc	r25, r18
    150e:	2f ef       	ldi	r18, 0xFF	; 255
    1510:	a2 07       	cpc	r26, r18
    1512:	20 e0       	ldi	r18, 0x00	; 0
    1514:	b2 07       	cpc	r27, r18
    1516:	09 f0       	breq	.+2      	; 0x151a <ir_receive+0x1c2>
    1518:	5a c0       	rjmp	.+180    	; 0x15ce <ir_receive+0x276>
    151a:	16 c0       	rjmp	.+44     	; 0x1548 <ir_receive+0x1f0>
    151c:	8d 33       	cpi	r24, 0x3D	; 61
    151e:	22 ec       	ldi	r18, 0xC2	; 194
    1520:	92 07       	cpc	r25, r18
    1522:	2f ef       	ldi	r18, 0xFF	; 255
    1524:	a2 07       	cpc	r26, r18
    1526:	20 e0       	ldi	r18, 0x00	; 0
    1528:	b2 07       	cpc	r27, r18
    152a:	b1 f0       	breq	.+44     	; 0x1558 <ir_receive+0x200>
    152c:	8f 3f       	cpi	r24, 0xFF	; 255
    152e:	2f ef       	ldi	r18, 0xFF	; 255
    1530:	92 07       	cpc	r25, r18
    1532:	2f ef       	ldi	r18, 0xFF	; 255
    1534:	a2 07       	cpc	r26, r18
    1536:	2f ef       	ldi	r18, 0xFF	; 255
    1538:	b2 07       	cpc	r27, r18
    153a:	09 f0       	breq	.+2      	; 0x153e <ir_receive+0x1e6>
    153c:	48 c0       	rjmp	.+144    	; 0x15ce <ir_receive+0x276>
    153e:	43 c0       	rjmp	.+134    	; 0x15c6 <ir_receive+0x26e>
	  {
		case IR_CODE_UP      : ir_remote_key = IR_UP      ; break;
    1540:	8a e0       	ldi	r24, 0x0A	; 10
    1542:	80 93 5b 02 	sts	0x025B, r24
    1546:	46 c0       	rjmp	.+140    	; 0x15d4 <ir_receive+0x27c>
		case IR_CODE_DOWN    : ir_remote_key = IR_DOWN    ; break;
    1548:	8d e0       	ldi	r24, 0x0D	; 13
    154a:	80 93 5b 02 	sts	0x025B, r24
    154e:	42 c0       	rjmp	.+132    	; 0x15d4 <ir_receive+0x27c>
		case IR_CODE_LEFT    : ir_remote_key = IR_LEFT    ; break;
    1550:	8b e0       	ldi	r24, 0x0B	; 11
    1552:	80 93 5b 02 	sts	0x025B, r24
    1556:	3e c0       	rjmp	.+124    	; 0x15d4 <ir_receive+0x27c>
		case IR_CODE_RIGHT   : ir_remote_key = IR_RIGHT   ; break;
    1558:	8c e0       	ldi	r24, 0x0C	; 12
    155a:	80 93 5b 02 	sts	0x025B, r24
    155e:	3a c0       	rjmp	.+116    	; 0x15d4 <ir_receive+0x27c>
		case IR_CODE_OK		 : ir_remote_key = IR_OK      ; break;
    1560:	8e e0       	ldi	r24, 0x0E	; 14
    1562:	80 93 5b 02 	sts	0x025B, r24
    1566:	36 c0       	rjmp	.+108    	; 0x15d4 <ir_receive+0x27c>
		case IR_CODE_ASTERISK: ir_remote_key = IR_ASTERISK; break;
    1568:	8f e0       	ldi	r24, 0x0F	; 15
    156a:	80 93 5b 02 	sts	0x025B, r24
    156e:	32 c0       	rjmp	.+100    	; 0x15d4 <ir_receive+0x27c>
		case IR_CODE_HASH    : ir_remote_key = IR_HASH    ; break;
    1570:	80 e1       	ldi	r24, 0x10	; 16
    1572:	80 93 5b 02 	sts	0x025B, r24
    1576:	2e c0       	rjmp	.+92     	; 0x15d4 <ir_receive+0x27c>
		case IR_CODE_0       : ir_remote_key = IR_0       ; break;
    1578:	10 92 5b 02 	sts	0x025B, r1
    157c:	2b c0       	rjmp	.+86     	; 0x15d4 <ir_receive+0x27c>
		case IR_CODE_1       : ir_remote_key = IR_1       ; break;
    157e:	81 e0       	ldi	r24, 0x01	; 1
    1580:	80 93 5b 02 	sts	0x025B, r24
    1584:	27 c0       	rjmp	.+78     	; 0x15d4 <ir_receive+0x27c>
		case IR_CODE_2       : ir_remote_key = IR_2       ; break;
    1586:	82 e0       	ldi	r24, 0x02	; 2
    1588:	80 93 5b 02 	sts	0x025B, r24
    158c:	23 c0       	rjmp	.+70     	; 0x15d4 <ir_receive+0x27c>
		case IR_CODE_3       : ir_remote_key = IR_3       ; break;
    158e:	83 e0       	ldi	r24, 0x03	; 3
    1590:	80 93 5b 02 	sts	0x025B, r24
    1594:	1f c0       	rjmp	.+62     	; 0x15d4 <ir_receive+0x27c>
		case IR_CODE_4       : ir_remote_key = IR_4       ; break;
    1596:	84 e0       	ldi	r24, 0x04	; 4
    1598:	80 93 5b 02 	sts	0x025B, r24
    159c:	1b c0       	rjmp	.+54     	; 0x15d4 <ir_receive+0x27c>
		case IR_CODE_5       : ir_remote_key = IR_5       ; break;
    159e:	85 e0       	ldi	r24, 0x05	; 5
    15a0:	80 93 5b 02 	sts	0x025B, r24
    15a4:	17 c0       	rjmp	.+46     	; 0x15d4 <ir_receive+0x27c>
		case IR_CODE_6       : ir_remote_key = IR_6       ; break;
    15a6:	86 e0       	ldi	r24, 0x06	; 6
    15a8:	80 93 5b 02 	sts	0x025B, r24
    15ac:	13 c0       	rjmp	.+38     	; 0x15d4 <ir_receive+0x27c>
		case IR_CODE_7       : ir_remote_key = IR_7       ; break;
    15ae:	87 e0       	ldi	r24, 0x07	; 7
    15b0:	80 93 5b 02 	sts	0x025B, r24
    15b4:	0f c0       	rjmp	.+30     	; 0x15d4 <ir_receive+0x27c>
		case IR_CODE_8       : ir_remote_key = IR_8       ; break;
    15b6:	88 e0       	ldi	r24, 0x08	; 8
    15b8:	80 93 5b 02 	sts	0x025B, r24
    15bc:	0b c0       	rjmp	.+22     	; 0x15d4 <ir_receive+0x27c>
		case IR_CODE_9       : ir_remote_key = IR_9       ; break;
    15be:	89 e0       	ldi	r24, 0x09	; 9
    15c0:	80 93 5b 02 	sts	0x025B, r24
    15c4:	07 c0       	rjmp	.+14     	; 0x15d4 <ir_receive+0x27c>
		case IR_CODE_REPEAT  : ir_remote_key = IR_REPEAT  ; break;
    15c6:	81 e1       	ldi	r24, 0x11	; 17
    15c8:	80 93 5b 02 	sts	0x025B, r24
    15cc:	03 c0       	rjmp	.+6      	; 0x15d4 <ir_receive+0x27c>
		default              : ir_remote_key = IR_NONE    ; break;
    15ce:	82 e1       	ldi	r24, 0x12	; 18
    15d0:	80 93 5b 02 	sts	0x025B, r24
	  } // switch
	  sprintf(s,"ir[%c]\n",IR_CHARS[ir_remote_key]);
    15d4:	00 d0       	rcall	.+0      	; 0x15d6 <ir_receive+0x27e>
    15d6:	00 d0       	rcall	.+0      	; 0x15d8 <ir_receive+0x280>
    15d8:	00 d0       	rcall	.+0      	; 0x15da <ir_receive+0x282>
    15da:	ed b7       	in	r30, 0x3d	; 61
    15dc:	fe b7       	in	r31, 0x3e	; 62
    15de:	31 96       	adiw	r30, 0x01	; 1
    15e0:	8e 01       	movw	r16, r28
    15e2:	0f 5f       	subi	r16, 0xFF	; 255
    15e4:	1f 4f       	sbci	r17, 0xFF	; 255
    15e6:	ad b7       	in	r26, 0x3d	; 61
    15e8:	be b7       	in	r27, 0x3e	; 62
    15ea:	12 96       	adiw	r26, 0x02	; 2
    15ec:	1c 93       	st	X, r17
    15ee:	0e 93       	st	-X, r16
    15f0:	11 97       	sbiw	r26, 0x01	; 1
    15f2:	8f e3       	ldi	r24, 0x3F	; 63
    15f4:	92 e0       	ldi	r25, 0x02	; 2
    15f6:	93 83       	std	Z+3, r25	; 0x03
    15f8:	82 83       	std	Z+2, r24	; 0x02
    15fa:	80 91 5b 02 	lds	r24, 0x025B
    15fe:	a7 e4       	ldi	r26, 0x47	; 71
    1600:	b2 e0       	ldi	r27, 0x02	; 2
    1602:	a8 0f       	add	r26, r24
    1604:	b1 1d       	adc	r27, r1
    1606:	8c 91       	ld	r24, X
    1608:	84 83       	std	Z+4, r24	; 0x04
    160a:	15 82       	std	Z+5, r1	; 0x05
    160c:	0e 94 e5 15 	call	0x2bca	; 0x2bca <sprintf>
	  xputs(s);    // output to terminal screen
    1610:	8d b7       	in	r24, 0x3d	; 61
    1612:	9e b7       	in	r25, 0x3e	; 62
    1614:	06 96       	adiw	r24, 0x06	; 6
    1616:	0f b6       	in	r0, 0x3f	; 63
    1618:	f8 94       	cli
    161a:	9e bf       	out	0x3e, r25	; 62
    161c:	0f be       	out	0x3f, r0	; 63
    161e:	8d bf       	out	0x3d, r24	; 61
    1620:	c8 01       	movw	r24, r16
    1622:	0e 94 c2 12 	call	0x2584	; 0x2584 <xputs>
	  std_cmd();   // execute STD for commands
    1626:	0e 94 49 08 	call	0x1092	; 0x1092 <std_cmd>
	  ir_resume(); // receive the next remote key
    162a:	0e 94 22 08 	call	0x1044	; 0x1044 <ir_resume>
	} // if
} // ir_receive()
    162e:	64 96       	adiw	r28, 0x14	; 20
    1630:	0f b6       	in	r0, 0x3f	; 63
    1632:	f8 94       	cli
    1634:	de bf       	out	0x3e, r29	; 62
    1636:	0f be       	out	0x3f, r0	; 63
    1638:	cd bf       	out	0x3d, r28	; 61
    163a:	df 91       	pop	r29
    163c:	cf 91       	pop	r28
    163e:	1f 91       	pop	r17
    1640:	0f 91       	pop	r16
    1642:	08 95       	ret

00001644 <update_nixies>:
void update_nixies(void)
{
	uint8_t i;
	uint32_t mask = 0x80000000; // start with MSB
	
	PORTB &= ~(RGB_R | RGB_G | RGB_B);               // clear  LED colours
    1644:	85 b1       	in	r24, 0x05	; 5
    1646:	88 7f       	andi	r24, 0xF8	; 248
    1648:	85 b9       	out	0x05, r24	; 5
	PORTB |= (rgb_colour & (RGB_R | RGB_G | RGB_B)); // update LED colours
    164a:	95 b1       	in	r25, 0x05	; 5
    164c:	80 91 0e 03 	lds	r24, 0x030E
    1650:	87 70       	andi	r24, 0x07	; 7
    1652:	89 2b       	or	r24, r25
    1654:	85 b9       	out	0x05, r24	; 5
    1656:	20 e2       	ldi	r18, 0x20	; 32
  Returns  : -
  ------------------------------------------------------------------------*/
void update_nixies(void)
{
	uint8_t i;
	uint32_t mask = 0x80000000; // start with MSB
    1658:	80 e0       	ldi	r24, 0x00	; 0
    165a:	90 e0       	ldi	r25, 0x00	; 0
    165c:	a0 e0       	ldi	r26, 0x00	; 0
    165e:	b0 e8       	ldi	r27, 0x80	; 128
	PORTB &= ~(RGB_R | RGB_G | RGB_B);               // clear  LED colours
	PORTB |= (rgb_colour & (RGB_R | RGB_G | RGB_B)); // update LED colours
	
	for (i = 0; i < 32; i++)
	{
		PORTD &= ~(SHCP|STCP); // set clocks to 0
    1660:	3b b1       	in	r19, 0x0b	; 11
    1662:	3f 73       	andi	r19, 0x3F	; 63
    1664:	3b b9       	out	0x0b, r19	; 11
		if ((nixie_bits & mask) == mask)
    1666:	40 91 0f 03 	lds	r20, 0x030F
    166a:	50 91 10 03 	lds	r21, 0x0310
    166e:	60 91 11 03 	lds	r22, 0x0311
    1672:	70 91 12 03 	lds	r23, 0x0312
    1676:	48 23       	and	r20, r24
    1678:	59 23       	and	r21, r25
    167a:	6a 23       	and	r22, r26
    167c:	7b 23       	and	r23, r27
    167e:	48 17       	cp	r20, r24
    1680:	59 07       	cpc	r21, r25
    1682:	6a 07       	cpc	r22, r26
    1684:	7b 07       	cpc	r23, r27
    1686:	11 f4       	brne	.+4      	; 0x168c <update_nixies+0x48>
			 PORTD |=  SDIN; // set SDIN to 1
    1688:	5d 9a       	sbi	0x0b, 5	; 11
    168a:	01 c0       	rjmp	.+2      	; 0x168e <update_nixies+0x4a>
		else PORTD &= ~SDIN; // set SDIN to 0
    168c:	5d 98       	cbi	0x0b, 5	; 11
		mask >>= 1;     // shift right 1
    168e:	b6 95       	lsr	r27
    1690:	a7 95       	ror	r26
    1692:	97 95       	ror	r25
    1694:	87 95       	ror	r24
		PORTD |=  SHCP; // set clock to 1
    1696:	5f 9a       	sbi	0x0b, 7	; 11
		PORTD &= ~SHCP; // set clock to 0 again
    1698:	5f 98       	cbi	0x0b, 7	; 11
    169a:	21 50       	subi	r18, 0x01	; 1
	uint32_t mask = 0x80000000; // start with MSB
	
	PORTB &= ~(RGB_R | RGB_G | RGB_B);               // clear  LED colours
	PORTB |= (rgb_colour & (RGB_R | RGB_G | RGB_B)); // update LED colours
	
	for (i = 0; i < 32; i++)
    169c:	09 f7       	brne	.-62     	; 0x1660 <update_nixies+0x1c>
		mask >>= 1;     // shift right 1
		PORTD |=  SHCP; // set clock to 1
		PORTD &= ~SHCP; // set clock to 0 again
	} // for x
	// Now clock bits from shift-registers to output-registers
	PORTD |=  STCP; // set clock to 1
    169e:	5e 9a       	sbi	0x0b, 6	; 11
	PORTD &= ~STCP; // set clock to 0 again
    16a0:	5e 98       	cbi	0x0b, 6	; 11
} // update_nixies()
    16a2:	08 95       	ret

000016a4 <millis>:
    return 1;
}

static __inline__ uint8_t __iCliRetVal(void)
{
    cli();
    16a4:	f8 94       	cli
	unsigned long m;
	// disable interrupts while we read timer0_millis or we might get an
	// inconsistent value (e.g. in the middle of a write to timer0_millis)
	ATOMIC_BLOCK(ATOMIC_FORCEON)
	{
		m = t2_millis;
    16a6:	60 91 13 03 	lds	r22, 0x0313
    16aa:	70 91 14 03 	lds	r23, 0x0314
    16ae:	80 91 15 03 	lds	r24, 0x0315
    16b2:	90 91 16 03 	lds	r25, 0x0316
    return 1;
}

static __inline__ void __iSeiParam(const uint8_t *__s)
{
    sei();
    16b6:	78 94       	sei
	}
	return m;
} // millis()
    16b8:	08 95       	ret

000016ba <delay_msec>:
  Variables: 
         ms: The number of milliseconds to wait.
  Returns  : -
  ------------------------------------------------------------------*/
void delay_msec(uint16_t ms)
{
    16ba:	8f 92       	push	r8
    16bc:	9f 92       	push	r9
    16be:	af 92       	push	r10
    16c0:	bf 92       	push	r11
    16c2:	cf 92       	push	r12
    16c4:	df 92       	push	r13
    16c6:	ef 92       	push	r14
    16c8:	ff 92       	push	r15
    16ca:	cf 93       	push	r28
    16cc:	df 93       	push	r29
    16ce:	ec 01       	movw	r28, r24
	unsigned long start = millis();
    16d0:	0e 94 52 0b 	call	0x16a4	; 0x16a4 <millis>
    16d4:	4b 01       	movw	r8, r22
    16d6:	5c 01       	movw	r10, r24

	while ((millis() - start) < ms) ;
    16d8:	6e 01       	movw	r12, r28
    16da:	ee 24       	eor	r14, r14
    16dc:	ff 24       	eor	r15, r15
    16de:	0e 94 52 0b 	call	0x16a4	; 0x16a4 <millis>
    16e2:	dc 01       	movw	r26, r24
    16e4:	cb 01       	movw	r24, r22
    16e6:	88 19       	sub	r24, r8
    16e8:	99 09       	sbc	r25, r9
    16ea:	aa 09       	sbc	r26, r10
    16ec:	bb 09       	sbc	r27, r11
    16ee:	8c 15       	cp	r24, r12
    16f0:	9d 05       	cpc	r25, r13
    16f2:	ae 05       	cpc	r26, r14
    16f4:	bf 05       	cpc	r27, r15
    16f6:	98 f3       	brcs	.-26     	; 0x16de <delay_msec+0x24>
} // delay_msec()
    16f8:	df 91       	pop	r29
    16fa:	cf 91       	pop	r28
    16fc:	ff 90       	pop	r15
    16fe:	ef 90       	pop	r14
    1700:	df 90       	pop	r13
    1702:	cf 90       	pop	r12
    1704:	bf 90       	pop	r11
    1706:	af 90       	pop	r10
    1708:	9f 90       	pop	r9
    170a:	8f 90       	pop	r8
    170c:	08 95       	ret

0000170e <__vector_7>:
             (f=20 kHz). It is used by the task-scheduler and the IR-receiver.
  Variables: -
  Returns  : -
  ------------------------------------------------------------------------*/
ISR(TIMER2_COMPA_vect)
{
    170e:	1f 92       	push	r1
    1710:	0f 92       	push	r0
    1712:	0f b6       	in	r0, 0x3f	; 63
    1714:	0f 92       	push	r0
    1716:	11 24       	eor	r1, r1
    1718:	2f 93       	push	r18
    171a:	3f 93       	push	r19
    171c:	4f 93       	push	r20
    171e:	5f 93       	push	r21
    1720:	6f 93       	push	r22
    1722:	7f 93       	push	r23
    1724:	8f 93       	push	r24
    1726:	9f 93       	push	r25
    1728:	af 93       	push	r26
    172a:	bf 93       	push	r27
    172c:	ef 93       	push	r30
    172e:	ff 93       	push	r31
	PORTB |= TIME_MEAS; // Time Measurement
    1730:	2d 9a       	sbi	0x05, 5	; 5
	if (++cnt_50usec > 19) 
    1732:	80 91 17 03 	lds	r24, 0x0317
    1736:	8f 5f       	subi	r24, 0xFF	; 255
    1738:	80 93 17 03 	sts	0x0317, r24
    173c:	84 31       	cpi	r24, 0x14	; 20
    173e:	b8 f0       	brcs	.+46     	; 0x176e <__vector_7+0x60>
	{
		scheduler_isr(); // call the ISR routine for the task-scheduler
    1740:	0e 94 8b 0d 	call	0x1b16	; 0x1b16 <scheduler_isr>
		t2_millis++;     // update millisecond counter
    1744:	80 91 13 03 	lds	r24, 0x0313
    1748:	90 91 14 03 	lds	r25, 0x0314
    174c:	a0 91 15 03 	lds	r26, 0x0315
    1750:	b0 91 16 03 	lds	r27, 0x0316
    1754:	01 96       	adiw	r24, 0x01	; 1
    1756:	a1 1d       	adc	r26, r1
    1758:	b1 1d       	adc	r27, r1
    175a:	80 93 13 03 	sts	0x0313, r24
    175e:	90 93 14 03 	sts	0x0314, r25
    1762:	a0 93 15 03 	sts	0x0315, r26
    1766:	b0 93 16 03 	sts	0x0316, r27
		cnt_50usec = 0;
    176a:	10 92 17 03 	sts	0x0317, r1
	} // if	
	ir_isr();            // call the ISR routine for the IR-receiver
    176e:	0e 94 a5 06 	call	0xd4a	; 0xd4a <ir_isr>
	PORTB &= ~TIME_MEAS; // Time Measurement
    1772:	2d 98       	cbi	0x05, 5	; 5
} // ISR()
    1774:	ff 91       	pop	r31
    1776:	ef 91       	pop	r30
    1778:	bf 91       	pop	r27
    177a:	af 91       	pop	r26
    177c:	9f 91       	pop	r25
    177e:	8f 91       	pop	r24
    1780:	7f 91       	pop	r23
    1782:	6f 91       	pop	r22
    1784:	5f 91       	pop	r21
    1786:	4f 91       	pop	r20
    1788:	3f 91       	pop	r19
    178a:	2f 91       	pop	r18
    178c:	0f 90       	pop	r0
    178e:	0f be       	out	0x3f, r0	; 63
    1790:	0f 90       	pop	r0
    1792:	1f 90       	pop	r1
    1794:	18 95       	reti

00001796 <encode_to_bcd>:
  Purpose  : Encode a byte into 2 BCD numbers.
  Variables: x: the byte to encode
  Returns  : the two encoded BCD numbers
  ------------------------------------------------------------------------*/
uint8_t encode_to_bcd(uint8_t x)
{
    1796:	28 2f       	mov	r18, r24
	uint8_t temp;
	uint8_t retv = 0;
		
	temp   = x / 10;
    1798:	6a e0       	ldi	r22, 0x0A	; 10
    179a:	0e 94 03 15 	call	0x2a06	; 0x2a06 <__udivmodqi4>
	retv  |= (temp & 0x0F);
	retv <<= 4; // SHL 4
	temp   = x - temp * 10;
    179e:	98 2f       	mov	r25, r24
    17a0:	99 0f       	add	r25, r25
    17a2:	39 2f       	mov	r19, r25
    17a4:	33 0f       	add	r19, r19
    17a6:	33 0f       	add	r19, r19
    17a8:	93 0f       	add	r25, r19
	uint8_t temp;
	uint8_t retv = 0;
		
	temp   = x / 10;
	retv  |= (temp & 0x0F);
	retv <<= 4; // SHL 4
    17aa:	82 95       	swap	r24
    17ac:	80 7f       	andi	r24, 0xF0	; 240
	temp   = x - temp * 10;
    17ae:	29 1b       	sub	r18, r25
	retv  |= (temp & 0x0F);
    17b0:	2f 70       	andi	r18, 0x0F	; 15
	return retv;
} // encode_to_bcd()
    17b2:	82 2b       	or	r24, r18
    17b4:	08 95       	ret

000017b6 <clear_nixie>:

void clear_nixie(uint8_t nr)
{
    17b6:	0f 93       	push	r16
    17b8:	1f 93       	push	r17
	uint8_t shift;
	if ((nr >= 1) && (nr <= 6))
    17ba:	98 2f       	mov	r25, r24
    17bc:	91 50       	subi	r25, 0x01	; 1
    17be:	96 30       	cpi	r25, 0x06	; 6
    17c0:	58 f5       	brcc	.+86     	; 0x1818 <clear_nixie+0x62>
	{
		shift = 24 - 4 * nr;
    17c2:	26 e0       	ldi	r18, 0x06	; 6
    17c4:	30 e0       	ldi	r19, 0x00	; 0
    17c6:	89 01       	movw	r16, r18
    17c8:	08 1b       	sub	r16, r24
    17ca:	11 09       	sbc	r17, r1
    17cc:	c8 01       	movw	r24, r16
    17ce:	88 0f       	add	r24, r24
    17d0:	88 0f       	add	r24, r24
		nixie_bits |= (NIXIE_CLEAR << shift);
    17d2:	4a e0       	ldi	r20, 0x0A	; 10
    17d4:	50 e0       	ldi	r21, 0x00	; 0
    17d6:	60 e0       	ldi	r22, 0x00	; 0
    17d8:	70 e0       	ldi	r23, 0x00	; 0
    17da:	8a 01       	movw	r16, r20
    17dc:	9b 01       	movw	r18, r22
    17de:	04 c0       	rjmp	.+8      	; 0x17e8 <clear_nixie+0x32>
    17e0:	00 0f       	add	r16, r16
    17e2:	11 1f       	adc	r17, r17
    17e4:	22 1f       	adc	r18, r18
    17e6:	33 1f       	adc	r19, r19
    17e8:	8a 95       	dec	r24
    17ea:	d2 f7       	brpl	.-12     	; 0x17e0 <clear_nixie+0x2a>
    17ec:	d9 01       	movw	r26, r18
    17ee:	c8 01       	movw	r24, r16
    17f0:	40 91 0f 03 	lds	r20, 0x030F
    17f4:	50 91 10 03 	lds	r21, 0x0310
    17f8:	60 91 11 03 	lds	r22, 0x0311
    17fc:	70 91 12 03 	lds	r23, 0x0312
    1800:	84 2b       	or	r24, r20
    1802:	95 2b       	or	r25, r21
    1804:	a6 2b       	or	r26, r22
    1806:	b7 2b       	or	r27, r23
    1808:	80 93 0f 03 	sts	0x030F, r24
    180c:	90 93 10 03 	sts	0x0310, r25
    1810:	a0 93 11 03 	sts	0x0311, r26
    1814:	b0 93 12 03 	sts	0x0312, r27
	} // if
} // clear_nixie()
    1818:	1f 91       	pop	r17
    181a:	0f 91       	pop	r16
    181c:	08 95       	ret

0000181e <display_task>:
			 Called once every second.
  Variables: nixie_bits (32 bits)
  Returns  : -
  ------------------------------------------------------------------------*/
void display_task(void)
{
    181e:	cf 92       	push	r12
    1820:	df 92       	push	r13
    1822:	ef 92       	push	r14
    1824:	ff 92       	push	r15
    1826:	1f 93       	push	r17
    1828:	cf 93       	push	r28
    182a:	df 93       	push	r29
    182c:	cd b7       	in	r28, 0x3d	; 61
    182e:	de b7       	in	r29, 0x3e	; 62
    1830:	28 97       	sbiw	r28, 0x08	; 8
    1832:	0f b6       	in	r0, 0x3f	; 63
    1834:	f8 94       	cli
    1836:	de bf       	out	0x3e, r29	; 62
    1838:	0f be       	out	0x3f, r0	; 63
    183a:	cd bf       	out	0x3d, r28	; 61
	Time p; // Time struct

	nixie_bits = 0x00000000; // clear all bits
    183c:	10 92 0f 03 	sts	0x030F, r1
    1840:	10 92 10 03 	sts	0x0310, r1
    1844:	10 92 11 03 	sts	0x0311, r1
    1848:	10 92 12 03 	sts	0x0312, r1
	ds3231_gettime(&p);
    184c:	ce 01       	movw	r24, r28
    184e:	01 96       	adiw	r24, 0x01	; 1
    1850:	0e 94 30 04 	call	0x860	; 0x860 <ds3231_gettime>
	if ((p.sec >= 25) && (p.sec < 27))
    1854:	1b 81       	ldd	r17, Y+3	; 0x03
    1856:	81 2f       	mov	r24, r17
    1858:	89 51       	subi	r24, 0x19	; 25
    185a:	82 30       	cpi	r24, 0x02	; 2
    185c:	e8 f5       	brcc	.+122    	; 0x18d8 <display_task+0xba>
	{   // display date & month
		nixie_bits = encode_to_bcd(p.date);
    185e:	8c 81       	ldd	r24, Y+4	; 0x04
    1860:	0e 94 cb 0b 	call	0x1796	; 0x1796 <encode_to_bcd>
    1864:	18 2f       	mov	r17, r24
		nixie_bits <<= 12;
		nixie_bits |= encode_to_bcd(p.mon);
    1866:	8d 81       	ldd	r24, Y+5	; 0x05
    1868:	0e 94 cb 0b 	call	0x1796	; 0x1796 <encode_to_bcd>

	nixie_bits = 0x00000000; // clear all bits
	ds3231_gettime(&p);
	if ((p.sec >= 25) && (p.sec < 27))
	{   // display date & month
		nixie_bits = encode_to_bcd(p.date);
    186c:	41 2f       	mov	r20, r17
    186e:	50 e0       	ldi	r21, 0x00	; 0
    1870:	60 e0       	ldi	r22, 0x00	; 0
    1872:	70 e0       	ldi	r23, 0x00	; 0
		nixie_bits <<= 12;
    1874:	03 2e       	mov	r0, r19
    1876:	3c e0       	ldi	r19, 0x0C	; 12
    1878:	44 0f       	add	r20, r20
    187a:	55 1f       	adc	r21, r21
    187c:	66 1f       	adc	r22, r22
    187e:	77 1f       	adc	r23, r23
    1880:	3a 95       	dec	r19
    1882:	d1 f7       	brne	.-12     	; 0x1878 <display_task+0x5a>
    1884:	30 2d       	mov	r19, r0
		nixie_bits |= encode_to_bcd(p.mon);
    1886:	90 e0       	ldi	r25, 0x00	; 0
    1888:	a0 e0       	ldi	r26, 0x00	; 0
    188a:	b0 e0       	ldi	r27, 0x00	; 0
    188c:	48 2b       	or	r20, r24
    188e:	59 2b       	or	r21, r25
    1890:	6a 2b       	or	r22, r26
    1892:	7b 2b       	or	r23, r27
		nixie_bits <<= 4;
    1894:	44 0f       	add	r20, r20
    1896:	55 1f       	adc	r21, r21
    1898:	66 1f       	adc	r22, r22
    189a:	77 1f       	adc	r23, r23
    189c:	44 0f       	add	r20, r20
    189e:	55 1f       	adc	r21, r21
    18a0:	66 1f       	adc	r22, r22
    18a2:	77 1f       	adc	r23, r23
    18a4:	44 0f       	add	r20, r20
    18a6:	55 1f       	adc	r21, r21
    18a8:	66 1f       	adc	r22, r22
    18aa:	77 1f       	adc	r23, r23
    18ac:	44 0f       	add	r20, r20
    18ae:	55 1f       	adc	r21, r21
    18b0:	66 1f       	adc	r22, r22
    18b2:	77 1f       	adc	r23, r23
    18b4:	40 93 0f 03 	sts	0x030F, r20
    18b8:	50 93 10 03 	sts	0x0310, r21
    18bc:	60 93 11 03 	sts	0x0311, r22
    18c0:	70 93 12 03 	sts	0x0312, r23
		clear_nixie(3);
    18c4:	83 e0       	ldi	r24, 0x03	; 3
    18c6:	0e 94 db 0b 	call	0x17b6	; 0x17b6 <clear_nixie>
		clear_nixie(6);
    18ca:	86 e0       	ldi	r24, 0x06	; 6
    18cc:	0e 94 db 0b 	call	0x17b6	; 0x17b6 <clear_nixie>
		rgb_colour = BLUE;
    18d0:	84 e0       	ldi	r24, 0x04	; 4
    18d2:	80 93 0e 03 	sts	0x030E, r24
    18d6:	71 c0       	rjmp	.+226    	; 0x19ba <display_task+0x19c>
	}
	else if ((p.sec >= 27) && (p.sec < 29))
    18d8:	81 2f       	mov	r24, r17
    18da:	8b 51       	subi	r24, 0x1B	; 27
    18dc:	82 30       	cpi	r24, 0x02	; 2
    18de:	08 f0       	brcs	.+2      	; 0x18e2 <display_task+0xc4>
    18e0:	3f c0       	rjmp	.+126    	; 0x1960 <display_task+0x142>
	{	// display year
		nixie_bits = encode_to_bcd(p.year / 100);
    18e2:	8e 81       	ldd	r24, Y+6	; 0x06
    18e4:	9f 81       	ldd	r25, Y+7	; 0x07
    18e6:	64 e6       	ldi	r22, 0x64	; 100
    18e8:	70 e0       	ldi	r23, 0x00	; 0
    18ea:	0e 94 0f 15 	call	0x2a1e	; 0x2a1e <__udivmodhi4>
    18ee:	c8 2e       	mov	r12, r24
    18f0:	86 2f       	mov	r24, r22
    18f2:	0e 94 cb 0b 	call	0x1796	; 0x1796 <encode_to_bcd>
    18f6:	18 2f       	mov	r17, r24
		nixie_bits <<= 8;
		nixie_bits |= encode_to_bcd(p.year % 100);
    18f8:	8c 2d       	mov	r24, r12
    18fa:	0e 94 cb 0b 	call	0x1796	; 0x1796 <encode_to_bcd>
		clear_nixie(6);
		rgb_colour = BLUE;
	}
	else if ((p.sec >= 27) && (p.sec < 29))
	{	// display year
		nixie_bits = encode_to_bcd(p.year / 100);
    18fe:	41 2f       	mov	r20, r17
    1900:	50 e0       	ldi	r21, 0x00	; 0
    1902:	60 e0       	ldi	r22, 0x00	; 0
    1904:	70 e0       	ldi	r23, 0x00	; 0
		nixie_bits <<= 8;
    1906:	76 2f       	mov	r23, r22
    1908:	65 2f       	mov	r22, r21
    190a:	54 2f       	mov	r21, r20
    190c:	44 27       	eor	r20, r20
		nixie_bits |= encode_to_bcd(p.year % 100);
    190e:	90 e0       	ldi	r25, 0x00	; 0
    1910:	a0 e0       	ldi	r26, 0x00	; 0
    1912:	b0 e0       	ldi	r27, 0x00	; 0
    1914:	48 2b       	or	r20, r24
    1916:	59 2b       	or	r21, r25
    1918:	6a 2b       	or	r22, r26
    191a:	7b 2b       	or	r23, r27
		nixie_bits <<= 4;
    191c:	44 0f       	add	r20, r20
    191e:	55 1f       	adc	r21, r21
    1920:	66 1f       	adc	r22, r22
    1922:	77 1f       	adc	r23, r23
    1924:	44 0f       	add	r20, r20
    1926:	55 1f       	adc	r21, r21
    1928:	66 1f       	adc	r22, r22
    192a:	77 1f       	adc	r23, r23
    192c:	44 0f       	add	r20, r20
    192e:	55 1f       	adc	r21, r21
    1930:	66 1f       	adc	r22, r22
    1932:	77 1f       	adc	r23, r23
    1934:	44 0f       	add	r20, r20
    1936:	55 1f       	adc	r21, r21
    1938:	66 1f       	adc	r22, r22
    193a:	77 1f       	adc	r23, r23
    193c:	40 93 0f 03 	sts	0x030F, r20
    1940:	50 93 10 03 	sts	0x0310, r21
    1944:	60 93 11 03 	sts	0x0311, r22
    1948:	70 93 12 03 	sts	0x0312, r23
		clear_nixie(1);
    194c:	81 e0       	ldi	r24, 0x01	; 1
    194e:	0e 94 db 0b 	call	0x17b6	; 0x17b6 <clear_nixie>
		clear_nixie(6);
    1952:	86 e0       	ldi	r24, 0x06	; 6
    1954:	0e 94 db 0b 	call	0x17b6	; 0x17b6 <clear_nixie>
		rgb_colour = BLUE;
    1958:	84 e0       	ldi	r24, 0x04	; 4
    195a:	80 93 0e 03 	sts	0x030E, r24
    195e:	2d c0       	rjmp	.+90     	; 0x19ba <display_task+0x19c>
	} // else if
	else
	{   // display normal time
		nixie_bits = encode_to_bcd(p.hour);
    1960:	89 81       	ldd	r24, Y+1	; 0x01
    1962:	0e 94 cb 0b 	call	0x1796	; 0x1796 <encode_to_bcd>
    1966:	c8 2e       	mov	r12, r24
		nixie_bits <<= 8; // SHL 8
		nixie_bits |= encode_to_bcd(p.min);
    1968:	8a 81       	ldd	r24, Y+2	; 0x02
    196a:	0e 94 cb 0b 	call	0x1796	; 0x1796 <encode_to_bcd>
		clear_nixie(6);
		rgb_colour = BLUE;
	} // else if
	else
	{   // display normal time
		nixie_bits = encode_to_bcd(p.hour);
    196e:	dd 24       	eor	r13, r13
    1970:	ee 24       	eor	r14, r14
    1972:	ff 24       	eor	r15, r15
		nixie_bits <<= 8; // SHL 8
    1974:	fe 2c       	mov	r15, r14
    1976:	ed 2c       	mov	r14, r13
    1978:	dc 2c       	mov	r13, r12
    197a:	cc 24       	eor	r12, r12
		nixie_bits |= encode_to_bcd(p.min);
    197c:	90 e0       	ldi	r25, 0x00	; 0
    197e:	a0 e0       	ldi	r26, 0x00	; 0
    1980:	b0 e0       	ldi	r27, 0x00	; 0
    1982:	c8 2a       	or	r12, r24
    1984:	d9 2a       	or	r13, r25
    1986:	ea 2a       	or	r14, r26
    1988:	fb 2a       	or	r15, r27
		nixie_bits <<= 8; // SHL 8
		nixie_bits |= encode_to_bcd(p.sec);
    198a:	81 2f       	mov	r24, r17
    198c:	0e 94 cb 0b 	call	0x1796	; 0x1796 <encode_to_bcd>
	else
	{   // display normal time
		nixie_bits = encode_to_bcd(p.hour);
		nixie_bits <<= 8; // SHL 8
		nixie_bits |= encode_to_bcd(p.min);
		nixie_bits <<= 8; // SHL 8
    1990:	fe 2c       	mov	r15, r14
    1992:	ed 2c       	mov	r14, r13
    1994:	dc 2c       	mov	r13, r12
    1996:	cc 24       	eor	r12, r12
		nixie_bits |= encode_to_bcd(p.sec);
    1998:	90 e0       	ldi	r25, 0x00	; 0
    199a:	a0 e0       	ldi	r26, 0x00	; 0
    199c:	b0 e0       	ldi	r27, 0x00	; 0
    199e:	c8 2a       	or	r12, r24
    19a0:	d9 2a       	or	r13, r25
    19a2:	ea 2a       	or	r14, r26
    19a4:	fb 2a       	or	r15, r27
    19a6:	c0 92 0f 03 	sts	0x030F, r12
    19aa:	d0 92 10 03 	sts	0x0310, r13
    19ae:	e0 92 11 03 	sts	0x0311, r14
    19b2:	f0 92 12 03 	sts	0x0312, r15
		rgb_colour = BLACK;
    19b6:	10 92 0e 03 	sts	0x030E, r1
	} // else
} // display_task()
    19ba:	28 96       	adiw	r28, 0x08	; 8
    19bc:	0f b6       	in	r0, 0x3f	; 63
    19be:	f8 94       	cli
    19c0:	de bf       	out	0x3e, r29	; 62
    19c2:	0f be       	out	0x3f, r0	; 63
    19c4:	cd bf       	out	0x3d, r28	; 61
    19c6:	df 91       	pop	r29
    19c8:	cf 91       	pop	r28
    19ca:	1f 91       	pop	r17
    19cc:	ff 90       	pop	r15
    19ce:	ef 90       	pop	r14
    19d0:	df 90       	pop	r13
    19d2:	cf 90       	pop	r12
    19d4:	08 95       	ret

000019d6 <init_timer2>:
Returns  : -
------------------------------------------------------------------------*/
void init_timer2(void)
{
	// Set Timer 2 to 20 kHz interrupt frequency: ISR(TIMER2_COMPA_vect)
	TCCR2A |= (0x01 << WGM21); // CTC mode, clear counter on TCNT2 == OCR2A
    19d6:	e0 eb       	ldi	r30, 0xB0	; 176
    19d8:	f0 e0       	ldi	r31, 0x00	; 0
    19da:	80 81       	ld	r24, Z
    19dc:	82 60       	ori	r24, 0x02	; 2
    19de:	80 83       	st	Z, r24
	TCCR2B =  (0x01 << CS21);  // set pre-scaler to 8 (fclk = 2 MHz)
    19e0:	82 e0       	ldi	r24, 0x02	; 2
    19e2:	80 93 b1 00 	sts	0x00B1, r24
	OCR2A  =  99;    // this should set interrupt frequency to 20 kHz
    19e6:	83 e6       	ldi	r24, 0x63	; 99
    19e8:	80 93 b3 00 	sts	0x00B3, r24
	TCNT2  =  0;     // start counting at 0
    19ec:	10 92 b2 00 	sts	0x00B2, r1
	TIMSK2 |= (0x01 << OCIE2A);   // Set interrupt on Compare Match
    19f0:	e0 e7       	ldi	r30, 0x70	; 112
    19f2:	f0 e0       	ldi	r31, 0x00	; 0
    19f4:	80 81       	ld	r24, Z
    19f6:	82 60       	ori	r24, 0x02	; 2
    19f8:	80 83       	st	Z, r24
} // init_timer2()
    19fa:	08 95       	ret

000019fc <init_ports>:
Variables: -
Returns  : -
------------------------------------------------------------------------*/
void init_ports(void)
{
	DDRB  &= ~(DHT22 | IR_RCV); // clear bits = input
    19fc:	84 b1       	in	r24, 0x04	; 4
    19fe:	87 7e       	andi	r24, 0xE7	; 231
    1a00:	84 b9       	out	0x04, r24	; 4
	PORTB &= ~(DHT22 | IR_RCV); // disable pull-up resistors
    1a02:	85 b1       	in	r24, 0x05	; 5
    1a04:	87 7e       	andi	r24, 0xE7	; 231
    1a06:	85 b9       	out	0x05, r24	; 5
	DDRB  |=  (TIME_MEAS | RGB_R | RGB_G | RGB_B); // set bits = output
    1a08:	84 b1       	in	r24, 0x04	; 4
    1a0a:	87 62       	ori	r24, 0x27	; 39
    1a0c:	84 b9       	out	0x04, r24	; 4
	PORTB &= ~(TIME_MEAS | RGB_R | RGB_G | RGB_B); // init. outputs to 0
    1a0e:	85 b1       	in	r24, 0x05	; 5
    1a10:	88 7d       	andi	r24, 0xD8	; 216
    1a12:	85 b9       	out	0x05, r24	; 5
	DDRD  |=  (SDIN | SHCP | STCP); // set bits = output
    1a14:	8a b1       	in	r24, 0x0a	; 10
    1a16:	80 6e       	ori	r24, 0xE0	; 224
    1a18:	8a b9       	out	0x0a, r24	; 10
	PORTD &= ~(SDIN | SHCP | STCP); // init. outputs to 0
    1a1a:	8b b1       	in	r24, 0x0b	; 11
    1a1c:	8f 71       	andi	r24, 0x1F	; 31
    1a1e:	8b b9       	out	0x0b, r24	; 11
} // init_ports()
    1a20:	08 95       	ret

00001a22 <main>:
		   and calls the task-scheduler in a loop.
Variables: -
Returns  : -
------------------------------------------------------------------------*/
int main(void)
{
    1a22:	cf 93       	push	r28
    1a24:	df 93       	push	r29
    1a26:	cd b7       	in	r28, 0x3d	; 61
    1a28:	de b7       	in	r29, 0x3e	; 62
    1a2a:	64 97       	sbiw	r28, 0x14	; 20
    1a2c:	0f b6       	in	r0, 0x3f	; 63
    1a2e:	f8 94       	cli
    1a30:	de bf       	out	0x3e, r29	; 62
    1a32:	0f be       	out	0x3f, r0	; 63
    1a34:	cd bf       	out	0x3d, r28	; 61
	char s[20];
	
	init_timer2(); // init. timer for scheduler and IR-receiver
    1a36:	0e 94 eb 0c 	call	0x19d6	; 0x19d6 <init_timer2>
	ir_init();     // init. IR-library
    1a3a:	0e 94 9f 06 	call	0xd3e	; 0xd3e <ir_init>
	i2c_init(SCL_CLK_400KHZ); // Init. I2C HW with 400 kHz clock
    1a3e:	8c e0       	ldi	r24, 0x0C	; 12
    1a40:	0e 94 8c 02 	call	0x518	; 0x518 <i2c_init>
	init_ports();  // init. PORTB and PORTD port-pins 	
    1a44:	0e 94 fe 0c 	call	0x19fc	; 0x19fc <init_ports>
	
	// Initialize Serial Communication, See usart.h for BAUD
	// F_CPU should be a Project Define (-DF_CPU=16000000UL)
	usart_init(MYUBRR); // Initializes the serial communication
    1a48:	83 e3       	ldi	r24, 0x33	; 51
    1a4a:	90 e0       	ldi	r25, 0x00	; 0
    1a4c:	0e 94 fd 11 	call	0x23fa	; 0x23fa <usart_init>
	
	// Add tasks for task-scheduler here
	add_task(display_task ,"Display",  0, 1000); // What to display on the Nixies.
    1a50:	8f e0       	ldi	r24, 0x0F	; 15
    1a52:	9c e0       	ldi	r25, 0x0C	; 12
    1a54:	6c e5       	ldi	r22, 0x5C	; 92
    1a56:	72 e0       	ldi	r23, 0x02	; 2
    1a58:	40 e0       	ldi	r20, 0x00	; 0
    1a5a:	50 e0       	ldi	r21, 0x00	; 0
    1a5c:	28 ee       	ldi	r18, 0xE8	; 232
    1a5e:	33 e0       	ldi	r19, 0x03	; 3
    1a60:	0e 94 aa 0e 	call	0x1d54	; 0x1d54 <add_task>
	add_task(update_nixies,"Update" ,100,   50); // Run Nixie Update every  50 msec.
    1a64:	82 e2       	ldi	r24, 0x22	; 34
    1a66:	9b e0       	ldi	r25, 0x0B	; 11
    1a68:	64 e6       	ldi	r22, 0x64	; 100
    1a6a:	72 e0       	ldi	r23, 0x02	; 2
    1a6c:	44 e6       	ldi	r20, 0x64	; 100
    1a6e:	50 e0       	ldi	r21, 0x00	; 0
    1a70:	22 e3       	ldi	r18, 0x32	; 50
    1a72:	30 e0       	ldi	r19, 0x00	; 0
    1a74:	0e 94 aa 0e 	call	0x1d54	; 0x1d54 <add_task>
	add_task(ir_receive   ,"IR_recv",200,  500); // Run IR-process   every 500 msec.
    1a78:	8c ea       	ldi	r24, 0xAC	; 172
    1a7a:	99 e0       	ldi	r25, 0x09	; 9
    1a7c:	6b e6       	ldi	r22, 0x6B	; 107
    1a7e:	72 e0       	ldi	r23, 0x02	; 2
    1a80:	48 ec       	ldi	r20, 0xC8	; 200
    1a82:	50 e0       	ldi	r21, 0x00	; 0
    1a84:	24 ef       	ldi	r18, 0xF4	; 244
    1a86:	31 e0       	ldi	r19, 0x01	; 1
    1a88:	0e 94 aa 0e 	call	0x1d54	; 0x1d54 <add_task>
	
	sei(); // set global interrupt enable, start task-scheduler
    1a8c:	78 94       	sei
	xputs("Nixie board v0.1, Emile, Martijn, Ronald\n");
    1a8e:	83 e7       	ldi	r24, 0x73	; 115
    1a90:	92 e0       	ldi	r25, 0x02	; 2
    1a92:	0e 94 c2 12 	call	0x2584	; 0x2584 <xputs>
		dispatch_tasks(); // Run Task-Scheduler
		switch (rs232_command_handler()) // run command handler continuously
		{
			case ERR_CMD: xputs("Command Error\n"); 
						  break;
			case ERR_NUM: sprintf(s,"Number Error (%s)\n",rs232_inbuf);
    1a96:	8e 01       	movw	r16, r28
    1a98:	0f 5f       	subi	r16, 0xFF	; 255
    1a9a:	1f 4f       	sbci	r17, 0xFF	; 255
    1a9c:	0f 2e       	mov	r0, r31
    1a9e:	fc ea       	ldi	r31, 0xAC	; 172
    1aa0:	ef 2e       	mov	r14, r31
    1aa2:	f2 e0       	ldi	r31, 0x02	; 2
    1aa4:	ff 2e       	mov	r15, r31
    1aa6:	f0 2d       	mov	r31, r0
    1aa8:	0f 2e       	mov	r0, r31
    1aaa:	fd e1       	ldi	r31, 0x1D	; 29
    1aac:	cf 2e       	mov	r12, r31
    1aae:	f3 e0       	ldi	r31, 0x03	; 3
    1ab0:	df 2e       	mov	r13, r31
    1ab2:	f0 2d       	mov	r31, r0
    while(1)
    {   // Run all scheduled tasks here
		dispatch_tasks(); // Run Task-Scheduler
		switch (rs232_command_handler()) // run command handler continuously
		{
			case ERR_CMD: xputs("Command Error\n"); 
    1ab4:	0f 2e       	mov	r0, r31
    1ab6:	fd e9       	ldi	r31, 0x9D	; 157
    1ab8:	af 2e       	mov	r10, r31
    1aba:	f2 e0       	ldi	r31, 0x02	; 2
    1abc:	bf 2e       	mov	r11, r31
    1abe:	f0 2d       	mov	r31, r0
	
	sei(); // set global interrupt enable, start task-scheduler
	xputs("Nixie board v0.1, Emile, Martijn, Ronald\n");
    while(1)
    {   // Run all scheduled tasks here
		dispatch_tasks(); // Run Task-Scheduler
    1ac0:	0e 94 04 0e 	call	0x1c08	; 0x1c08 <dispatch_tasks>
		switch (rs232_command_handler()) // run command handler continuously
    1ac4:	0e 94 56 02 	call	0x4ac	; 0x4ac <rs232_command_handler>
    1ac8:	81 30       	cpi	r24, 0x01	; 1
    1aca:	19 f0       	breq	.+6      	; 0x1ad2 <main+0xb0>
    1acc:	82 30       	cpi	r24, 0x02	; 2
    1ace:	c1 f7       	brne	.-16     	; 0x1ac0 <main+0x9e>
    1ad0:	04 c0       	rjmp	.+8      	; 0x1ada <main+0xb8>
		{
			case ERR_CMD: xputs("Command Error\n"); 
    1ad2:	c5 01       	movw	r24, r10
    1ad4:	0e 94 c2 12 	call	0x2584	; 0x2584 <xputs>
						  break;
    1ad8:	f3 cf       	rjmp	.-26     	; 0x1ac0 <main+0x9e>
			case ERR_NUM: sprintf(s,"Number Error (%s)\n",rs232_inbuf);
    1ada:	00 d0       	rcall	.+0      	; 0x1adc <main+0xba>
    1adc:	00 d0       	rcall	.+0      	; 0x1ade <main+0xbc>
    1ade:	00 d0       	rcall	.+0      	; 0x1ae0 <main+0xbe>
    1ae0:	ed b7       	in	r30, 0x3d	; 61
    1ae2:	fe b7       	in	r31, 0x3e	; 62
    1ae4:	31 96       	adiw	r30, 0x01	; 1
    1ae6:	ad b7       	in	r26, 0x3d	; 61
    1ae8:	be b7       	in	r27, 0x3e	; 62
    1aea:	12 96       	adiw	r26, 0x02	; 2
    1aec:	1c 93       	st	X, r17
    1aee:	0e 93       	st	-X, r16
    1af0:	11 97       	sbiw	r26, 0x01	; 1
    1af2:	f3 82       	std	Z+3, r15	; 0x03
    1af4:	e2 82       	std	Z+2, r14	; 0x02
    1af6:	d5 82       	std	Z+5, r13	; 0x05
    1af8:	c4 82       	std	Z+4, r12	; 0x04
    1afa:	0e 94 e5 15 	call	0x2bca	; 0x2bca <sprintf>
						  xputs(s);
    1afe:	8d b7       	in	r24, 0x3d	; 61
    1b00:	9e b7       	in	r25, 0x3e	; 62
    1b02:	06 96       	adiw	r24, 0x06	; 6
    1b04:	0f b6       	in	r0, 0x3f	; 63
    1b06:	f8 94       	cli
    1b08:	9e bf       	out	0x3e, r25	; 62
    1b0a:	0f be       	out	0x3f, r0	; 63
    1b0c:	8d bf       	out	0x3d, r24	; 61
    1b0e:	c8 01       	movw	r24, r16
    1b10:	0e 94 c2 12 	call	0x2584	; 0x2584 <xputs>
						  break;
    1b14:	d5 cf       	rjmp	.-86     	; 0x1ac0 <main+0x9e>

00001b16 <scheduler_isr>:
  ---------------------------------------------------------------------------*/
void scheduler_isr(void)
{
	uint8_t index = 0; // index in task_list struct

	while(task_list[index].pFunction)
    1b16:	80 91 0d 04 	lds	r24, 0x040D
    1b1a:	90 91 0e 04 	lds	r25, 0x040E
    1b1e:	00 97       	sbiw	r24, 0x00	; 0
    1b20:	09 f4       	brne	.+2      	; 0x1b24 <scheduler_isr+0xe>
    1b22:	71 c0       	rjmp	.+226    	; 0x1c06 <scheduler_isr+0xf0>
    1b24:	80 e0       	ldi	r24, 0x00	; 0
    1b26:	90 e0       	ldi	r25, 0x00	; 0
  Variables: task_list[] structure
  Returns  : -
  ---------------------------------------------------------------------------*/
void scheduler_isr(void)
{
	uint8_t index = 0; // index in task_list struct
    1b28:	60 e0       	ldi	r22, 0x00	; 0

	while(task_list[index].pFunction)
	{
		//First go through the initial delay
		if(task_list[index].Delay > 0)
    1b2a:	ad e0       	ldi	r26, 0x0D	; 13
    1b2c:	b4 e0       	ldi	r27, 0x04	; 4
    1b2e:	fc 01       	movw	r30, r24
    1b30:	ee 0f       	add	r30, r30
    1b32:	ff 1f       	adc	r31, r31
    1b34:	e8 0f       	add	r30, r24
    1b36:	f9 1f       	adc	r31, r25
    1b38:	ee 0f       	add	r30, r30
    1b3a:	ff 1f       	adc	r31, r31
    1b3c:	ee 0f       	add	r30, r30
    1b3e:	ff 1f       	adc	r31, r31
    1b40:	ee 0f       	add	r30, r30
    1b42:	ff 1f       	adc	r31, r31
    1b44:	e8 0f       	add	r30, r24
    1b46:	f9 1f       	adc	r31, r25
    1b48:	ea 0f       	add	r30, r26
    1b4a:	fb 1f       	adc	r31, r27
    1b4c:	40 89       	ldd	r20, Z+16	; 0x10
    1b4e:	51 89       	ldd	r21, Z+17	; 0x11
    1b50:	41 15       	cp	r20, r1
    1b52:	51 05       	cpc	r21, r1
    1b54:	a9 f0       	breq	.+42     	; 0x1b80 <scheduler_isr+0x6a>
		{
			task_list[index].Delay--;
    1b56:	9c 01       	movw	r18, r24
    1b58:	22 0f       	add	r18, r18
    1b5a:	33 1f       	adc	r19, r19
    1b5c:	28 0f       	add	r18, r24
    1b5e:	39 1f       	adc	r19, r25
    1b60:	22 0f       	add	r18, r18
    1b62:	33 1f       	adc	r19, r19
    1b64:	22 0f       	add	r18, r18
    1b66:	33 1f       	adc	r19, r19
    1b68:	22 0f       	add	r18, r18
    1b6a:	33 1f       	adc	r19, r19
    1b6c:	82 0f       	add	r24, r18
    1b6e:	93 1f       	adc	r25, r19
    1b70:	fd 01       	movw	r30, r26
    1b72:	e8 0f       	add	r30, r24
    1b74:	f9 1f       	adc	r31, r25
    1b76:	41 50       	subi	r20, 0x01	; 1
    1b78:	50 40       	sbci	r21, 0x00	; 0
    1b7a:	51 8b       	std	Z+17, r21	; 0x11
    1b7c:	40 8b       	std	Z+16, r20	; 0x10
    1b7e:	2b c0       	rjmp	.+86     	; 0x1bd6 <scheduler_isr+0xc0>
		} // if
		else
		{	//now we decrement the actual period counter 

			task_list[index].Counter--;
    1b80:	fc 01       	movw	r30, r24
    1b82:	ee 0f       	add	r30, r30
    1b84:	ff 1f       	adc	r31, r31
    1b86:	e8 0f       	add	r30, r24
    1b88:	f9 1f       	adc	r31, r25
    1b8a:	ee 0f       	add	r30, r30
    1b8c:	ff 1f       	adc	r31, r31
    1b8e:	ee 0f       	add	r30, r30
    1b90:	ff 1f       	adc	r31, r31
    1b92:	ee 0f       	add	r30, r30
    1b94:	ff 1f       	adc	r31, r31
    1b96:	e8 0f       	add	r30, r24
    1b98:	f9 1f       	adc	r31, r25
    1b9a:	ea 0f       	add	r30, r26
    1b9c:	fb 1f       	adc	r31, r27
    1b9e:	22 89       	ldd	r18, Z+18	; 0x12
    1ba0:	33 89       	ldd	r19, Z+19	; 0x13
    1ba2:	21 50       	subi	r18, 0x01	; 1
    1ba4:	30 40       	sbci	r19, 0x00	; 0
    1ba6:	33 8b       	std	Z+19, r19	; 0x13
    1ba8:	22 8b       	std	Z+18, r18	; 0x12
			if(task_list[index].Counter == 0)
    1baa:	21 15       	cp	r18, r1
    1bac:	31 05       	cpc	r19, r1
    1bae:	99 f4       	brne	.+38     	; 0x1bd6 <scheduler_isr+0xc0>
			{
				//Set the flag and reset the counter;
				task_list[index].Status |= TASK_READY;
    1bb0:	9c 01       	movw	r18, r24
    1bb2:	22 0f       	add	r18, r18
    1bb4:	33 1f       	adc	r19, r19
    1bb6:	28 0f       	add	r18, r24
    1bb8:	39 1f       	adc	r19, r25
    1bba:	22 0f       	add	r18, r18
    1bbc:	33 1f       	adc	r19, r19
    1bbe:	22 0f       	add	r18, r18
    1bc0:	33 1f       	adc	r19, r19
    1bc2:	22 0f       	add	r18, r18
    1bc4:	33 1f       	adc	r19, r19
    1bc6:	82 0f       	add	r24, r18
    1bc8:	93 1f       	adc	r25, r19
    1bca:	fd 01       	movw	r30, r26
    1bcc:	e8 0f       	add	r30, r24
    1bce:	f9 1f       	adc	r31, r25
    1bd0:	84 89       	ldd	r24, Z+20	; 0x14
    1bd2:	81 60       	ori	r24, 0x01	; 1
    1bd4:	84 8b       	std	Z+20, r24	; 0x14
			} // if
		} // else
		index++;
    1bd6:	6f 5f       	subi	r22, 0xFF	; 255
  ---------------------------------------------------------------------------*/
void scheduler_isr(void)
{
	uint8_t index = 0; // index in task_list struct

	while(task_list[index].pFunction)
    1bd8:	86 2f       	mov	r24, r22
    1bda:	90 e0       	ldi	r25, 0x00	; 0
    1bdc:	fc 01       	movw	r30, r24
    1bde:	ee 0f       	add	r30, r30
    1be0:	ff 1f       	adc	r31, r31
    1be2:	e8 0f       	add	r30, r24
    1be4:	f9 1f       	adc	r31, r25
    1be6:	ee 0f       	add	r30, r30
    1be8:	ff 1f       	adc	r31, r31
    1bea:	ee 0f       	add	r30, r30
    1bec:	ff 1f       	adc	r31, r31
    1bee:	ee 0f       	add	r30, r30
    1bf0:	ff 1f       	adc	r31, r31
    1bf2:	e8 0f       	add	r30, r24
    1bf4:	f9 1f       	adc	r31, r25
    1bf6:	ea 0f       	add	r30, r26
    1bf8:	fb 1f       	adc	r31, r27
    1bfa:	20 81       	ld	r18, Z
    1bfc:	31 81       	ldd	r19, Z+1	; 0x01
    1bfe:	21 15       	cp	r18, r1
    1c00:	31 05       	cpc	r19, r1
    1c02:	09 f0       	breq	.+2      	; 0x1c06 <scheduler_isr+0xf0>
    1c04:	94 cf       	rjmp	.-216    	; 0x1b2e <scheduler_isr+0x18>
    1c06:	08 95       	ret

00001c08 <dispatch_tasks>:
             from within the main() function, not from an interrupt routine!
  Variables: task_list[] structure
  Returns  : -
  ---------------------------------------------------------------------------*/
void dispatch_tasks(void)
{
    1c08:	8f 92       	push	r8
    1c0a:	9f 92       	push	r9
    1c0c:	af 92       	push	r10
    1c0e:	bf 92       	push	r11
    1c10:	cf 92       	push	r12
    1c12:	df 92       	push	r13
    1c14:	ef 92       	push	r14
    1c16:	ff 92       	push	r15
    1c18:	1f 93       	push	r17
    1c1a:	cf 93       	push	r28
    1c1c:	df 93       	push	r29
	uint8_t index = 0;
	uint32_t time1; // Measured #clock-ticks of 50 usec. (TMR1 frequency)
	uint32_t time2;

	//go through the active tasks
	while(task_list[index].pFunction)
    1c1e:	80 91 0d 04 	lds	r24, 0x040D
    1c22:	90 91 0e 04 	lds	r25, 0x040E
    1c26:	00 97       	sbiw	r24, 0x00	; 0
    1c28:	09 f4       	brne	.+2      	; 0x1c2c <dispatch_tasks+0x24>
    1c2a:	88 c0       	rjmp	.+272    	; 0x1d3c <dispatch_tasks+0x134>
    1c2c:	c0 e0       	ldi	r28, 0x00	; 0
    1c2e:	d0 e0       	ldi	r29, 0x00	; 0
  Variables: task_list[] structure
  Returns  : -
  ---------------------------------------------------------------------------*/
void dispatch_tasks(void)
{
	uint8_t index = 0;
    1c30:	10 e0       	ldi	r17, 0x00	; 0
	uint32_t time2;

	//go through the active tasks
	while(task_list[index].pFunction)
	{
		if((task_list[index].Status & (TASK_READY | TASK_ENABLED)) == (TASK_READY | TASK_ENABLED))
    1c32:	0f 2e       	mov	r0, r31
    1c34:	fd e0       	ldi	r31, 0x0D	; 13
    1c36:	cf 2e       	mov	r12, r31
    1c38:	f4 e0       	ldi	r31, 0x04	; 4
    1c3a:	df 2e       	mov	r13, r31
    1c3c:	f0 2d       	mov	r31, r0
    1c3e:	fe 01       	movw	r30, r28
    1c40:	ee 0f       	add	r30, r30
    1c42:	ff 1f       	adc	r31, r31
    1c44:	ec 0f       	add	r30, r28
    1c46:	fd 1f       	adc	r31, r29
    1c48:	ee 0f       	add	r30, r30
    1c4a:	ff 1f       	adc	r31, r31
    1c4c:	ee 0f       	add	r30, r30
    1c4e:	ff 1f       	adc	r31, r31
    1c50:	ee 0f       	add	r30, r30
    1c52:	ff 1f       	adc	r31, r31
    1c54:	ec 0f       	add	r30, r28
    1c56:	fd 1f       	adc	r31, r29
    1c58:	ec 0d       	add	r30, r12
    1c5a:	fd 1d       	adc	r31, r13
    1c5c:	84 89       	ldd	r24, Z+20	; 0x14
    1c5e:	83 70       	andi	r24, 0x03	; 3
    1c60:	83 30       	cpi	r24, 0x03	; 3
    1c62:	09 f0       	breq	.+2      	; 0x1c66 <dispatch_tasks+0x5e>
    1c64:	54 c0       	rjmp	.+168    	; 0x1d0e <dispatch_tasks+0x106>
		{
			time1 = millis(); // Read msec. timer
    1c66:	0e 94 52 0b 	call	0x16a4	; 0x16a4 <millis>
    1c6a:	4b 01       	movw	r8, r22
    1c6c:	5c 01       	movw	r10, r24
			task_list[index].pFunction(); // run the task
    1c6e:	7e 01       	movw	r14, r28
    1c70:	ee 0c       	add	r14, r14
    1c72:	ff 1c       	adc	r15, r15
    1c74:	ec 0e       	add	r14, r28
    1c76:	fd 1e       	adc	r15, r29
    1c78:	ee 0c       	add	r14, r14
    1c7a:	ff 1c       	adc	r15, r15
    1c7c:	ee 0c       	add	r14, r14
    1c7e:	ff 1c       	adc	r15, r15
    1c80:	ee 0c       	add	r14, r14
    1c82:	ff 1c       	adc	r15, r15
    1c84:	ec 0e       	add	r14, r28
    1c86:	fd 1e       	adc	r15, r29
    1c88:	ec 0c       	add	r14, r12
    1c8a:	fd 1c       	adc	r15, r13
    1c8c:	d7 01       	movw	r26, r14
    1c8e:	ed 91       	ld	r30, X+
    1c90:	fc 91       	ld	r31, X
    1c92:	09 95       	icall
			task_list[index].Status  &= ~TASK_READY; // reset the task when finished
    1c94:	f7 01       	movw	r30, r14
    1c96:	84 89       	ldd	r24, Z+20	; 0x14
    1c98:	8e 7f       	andi	r24, 0xFE	; 254
    1c9a:	84 8b       	std	Z+20, r24	; 0x14
			task_list[index].Counter  = task_list[index].Period; // reset counter
    1c9c:	86 85       	ldd	r24, Z+14	; 0x0e
    1c9e:	97 85       	ldd	r25, Z+15	; 0x0f
    1ca0:	93 8b       	std	Z+19, r25	; 0x13
    1ca2:	82 8b       	std	Z+18, r24	; 0x12
			time2 = millis(); // read msec. timer
    1ca4:	0e 94 52 0b 	call	0x16a4	; 0x16a4 <millis>
    1ca8:	ab 01       	movw	r20, r22
    1caa:	bc 01       	movw	r22, r24
			if (time2 < time1) time2 += UINT32_MAX - time1; // overflows every 49.7 days, unlikely
    1cac:	48 15       	cp	r20, r8
    1cae:	59 05       	cpc	r21, r9
    1cb0:	6a 05       	cpc	r22, r10
    1cb2:	7b 05       	cpc	r23, r11
    1cb4:	58 f4       	brcc	.+22     	; 0x1ccc <dispatch_tasks+0xc4>
    1cb6:	d5 01       	movw	r26, r10
    1cb8:	c4 01       	movw	r24, r8
    1cba:	80 95       	com	r24
    1cbc:	90 95       	com	r25
    1cbe:	a0 95       	com	r26
    1cc0:	b0 95       	com	r27
    1cc2:	48 0f       	add	r20, r24
    1cc4:	59 1f       	adc	r21, r25
    1cc6:	6a 1f       	adc	r22, r26
    1cc8:	7b 1f       	adc	r23, r27
    1cca:	04 c0       	rjmp	.+8      	; 0x1cd4 <dispatch_tasks+0xcc>
			else               time2 -= time1; 
    1ccc:	48 19       	sub	r20, r8
    1cce:	59 09       	sbc	r21, r9
    1cd0:	6a 09       	sbc	r22, r10
    1cd2:	7b 09       	sbc	r23, r11
			task_list[index].Duration  = (uint16_t)time2; // time difference in milliseconds
    1cd4:	fe 01       	movw	r30, r28
    1cd6:	ee 0f       	add	r30, r30
    1cd8:	ff 1f       	adc	r31, r31
    1cda:	ec 0f       	add	r30, r28
    1cdc:	fd 1f       	adc	r31, r29
    1cde:	ee 0f       	add	r30, r30
    1ce0:	ff 1f       	adc	r31, r31
    1ce2:	ee 0f       	add	r30, r30
    1ce4:	ff 1f       	adc	r31, r31
    1ce6:	ee 0f       	add	r30, r30
    1ce8:	ff 1f       	adc	r31, r31
    1cea:	ec 0f       	add	r30, r28
    1cec:	fd 1f       	adc	r31, r29
    1cee:	ec 0d       	add	r30, r12
    1cf0:	fd 1d       	adc	r31, r13
    1cf2:	56 8b       	std	Z+22, r21	; 0x16
    1cf4:	45 8b       	std	Z+21, r20	; 0x15
			if (time2 > task_list[index].Duration_Max)
    1cf6:	87 89       	ldd	r24, Z+23	; 0x17
    1cf8:	90 8d       	ldd	r25, Z+24	; 0x18
    1cfa:	a0 e0       	ldi	r26, 0x00	; 0
    1cfc:	b0 e0       	ldi	r27, 0x00	; 0
    1cfe:	84 17       	cp	r24, r20
    1d00:	95 07       	cpc	r25, r21
    1d02:	a6 07       	cpc	r26, r22
    1d04:	b7 07       	cpc	r27, r23
    1d06:	18 f4       	brcc	.+6      	; 0x1d0e <dispatch_tasks+0x106>
			{
				task_list[index].Duration_Max = time2;
    1d08:	ef 01       	movw	r28, r30
    1d0a:	58 8f       	std	Y+24, r21	; 0x18
    1d0c:	4f 8b       	std	Y+23, r20	; 0x17
			} // if
		} // if
		index++;
    1d0e:	1f 5f       	subi	r17, 0xFF	; 255
	uint8_t index = 0;
	uint32_t time1; // Measured #clock-ticks of 50 usec. (TMR1 frequency)
	uint32_t time2;

	//go through the active tasks
	while(task_list[index].pFunction)
    1d10:	c1 2f       	mov	r28, r17
    1d12:	d0 e0       	ldi	r29, 0x00	; 0
    1d14:	fe 01       	movw	r30, r28
    1d16:	ee 0f       	add	r30, r30
    1d18:	ff 1f       	adc	r31, r31
    1d1a:	ec 0f       	add	r30, r28
    1d1c:	fd 1f       	adc	r31, r29
    1d1e:	ee 0f       	add	r30, r30
    1d20:	ff 1f       	adc	r31, r31
    1d22:	ee 0f       	add	r30, r30
    1d24:	ff 1f       	adc	r31, r31
    1d26:	ee 0f       	add	r30, r30
    1d28:	ff 1f       	adc	r31, r31
    1d2a:	ec 0f       	add	r30, r28
    1d2c:	fd 1f       	adc	r31, r29
    1d2e:	ec 0d       	add	r30, r12
    1d30:	fd 1d       	adc	r31, r13
    1d32:	80 81       	ld	r24, Z
    1d34:	91 81       	ldd	r25, Z+1	; 0x01
    1d36:	00 97       	sbiw	r24, 0x00	; 0
    1d38:	09 f0       	breq	.+2      	; 0x1d3c <dispatch_tasks+0x134>
    1d3a:	81 cf       	rjmp	.-254    	; 0x1c3e <dispatch_tasks+0x36>
			} // if
		} // if
		index++;
	} // while
	//go to sleep till next tick!
} // dispatch_tasks()
    1d3c:	df 91       	pop	r29
    1d3e:	cf 91       	pop	r28
    1d40:	1f 91       	pop	r17
    1d42:	ff 90       	pop	r15
    1d44:	ef 90       	pop	r14
    1d46:	df 90       	pop	r13
    1d48:	cf 90       	pop	r12
    1d4a:	bf 90       	pop	r11
    1d4c:	af 90       	pop	r10
    1d4e:	9f 90       	pop	r9
    1d50:	8f 90       	pop	r8
    1d52:	08 95       	ret

00001d54 <add_task>:
             delay   : initial delay in msec.
             period  : period between two calls in msec.
  Returns  : [NO_ERR, ERR_MAX_TASKS]
  ---------------------------------------------------------------------------*/
uint8_t add_task(void (*task_ptr), char *Name, uint16_t delay, uint16_t period)
{
    1d54:	4f 92       	push	r4
    1d56:	5f 92       	push	r5
    1d58:	6f 92       	push	r6
    1d5a:	7f 92       	push	r7
    1d5c:	8f 92       	push	r8
    1d5e:	9f 92       	push	r9
    1d60:	af 92       	push	r10
    1d62:	bf 92       	push	r11
    1d64:	cf 92       	push	r12
    1d66:	df 92       	push	r13
    1d68:	ef 92       	push	r14
    1d6a:	ff 92       	push	r15
    1d6c:	1f 93       	push	r17
    1d6e:	cf 93       	push	r28
    1d70:	df 93       	push	r29
    1d72:	7c 01       	movw	r14, r24
    1d74:	5b 01       	movw	r10, r22
    1d76:	6a 01       	movw	r12, r20
    1d78:	b9 01       	movw	r22, r18
	uint8_t  index = 0;
	uint16_t temp1 = (uint16_t)(delay  * TICKS_PER_SEC / 1000);
	uint16_t temp2 = (uint16_t)(period * TICKS_PER_SEC / 1000);

	if (max_tasks >= MAX_TASKS)
    1d7a:	10 91 18 03 	lds	r17, 0x0318
    1d7e:	19 30       	cpi	r17, 0x09	; 9
    1d80:	08 f0       	brcs	.+2      	; 0x1d84 <add_task+0x30>
    1d82:	67 c0       	rjmp	.+206    	; 0x1e52 <add_task+0xfe>
		return ERR_MAX_TASKS;
		
	//go through the active tasks
	if(task_list[index].Period != 0)
    1d84:	80 91 1b 04 	lds	r24, 0x041B
    1d88:	90 91 1c 04 	lds	r25, 0x041C
    1d8c:	00 97       	sbiw	r24, 0x00	; 0
    1d8e:	d9 f0       	breq	.+54     	; 0x1dc6 <add_task+0x72>
    1d90:	c0 e0       	ldi	r28, 0x00	; 0
	{
		while(task_list[++index].Period != 0) ;
    1d92:	4d e0       	ldi	r20, 0x0D	; 13
    1d94:	54 e0       	ldi	r21, 0x04	; 4
    1d96:	cf 5f       	subi	r28, 0xFF	; 255
    1d98:	2c 2f       	mov	r18, r28
    1d9a:	30 e0       	ldi	r19, 0x00	; 0
    1d9c:	c9 01       	movw	r24, r18
    1d9e:	88 0f       	add	r24, r24
    1da0:	99 1f       	adc	r25, r25
    1da2:	82 0f       	add	r24, r18
    1da4:	93 1f       	adc	r25, r19
    1da6:	88 0f       	add	r24, r24
    1da8:	99 1f       	adc	r25, r25
    1daa:	88 0f       	add	r24, r24
    1dac:	99 1f       	adc	r25, r25
    1dae:	88 0f       	add	r24, r24
    1db0:	99 1f       	adc	r25, r25
    1db2:	82 0f       	add	r24, r18
    1db4:	93 1f       	adc	r25, r19
    1db6:	84 0f       	add	r24, r20
    1db8:	95 1f       	adc	r25, r21
    1dba:	fc 01       	movw	r30, r24
    1dbc:	86 85       	ldd	r24, Z+14	; 0x0e
    1dbe:	97 85       	ldd	r25, Z+15	; 0x0f
    1dc0:	00 97       	sbiw	r24, 0x00	; 0
    1dc2:	49 f7       	brne	.-46     	; 0x1d96 <add_task+0x42>
    1dc4:	01 c0       	rjmp	.+2      	; 0x1dc8 <add_task+0x74>
             period  : period between two calls in msec.
  Returns  : [NO_ERR, ERR_MAX_TASKS]
  ---------------------------------------------------------------------------*/
uint8_t add_task(void (*task_ptr), char *Name, uint16_t delay, uint16_t period)
{
	uint8_t  index = 0;
    1dc6:	c0 e0       	ldi	r28, 0x00	; 0
	uint16_t temp1 = (uint16_t)(delay  * TICKS_PER_SEC / 1000);
	uint16_t temp2 = (uint16_t)(period * TICKS_PER_SEC / 1000);
    1dc8:	80 e0       	ldi	r24, 0x00	; 0
    1dca:	90 e0       	ldi	r25, 0x00	; 0
    1dcc:	28 ee       	ldi	r18, 0xE8	; 232
    1dce:	33 e0       	ldi	r19, 0x03	; 3
    1dd0:	40 e0       	ldi	r20, 0x00	; 0
    1dd2:	50 e0       	ldi	r21, 0x00	; 0
    1dd4:	0e 94 e4 14 	call	0x29c8	; 0x29c8 <__mulsi3>
    1dd8:	0e 94 58 15 	call	0x2ab0	; 0x2ab0 <__divmodsi4>
	if(task_list[index].Period != 0)
	{
		while(task_list[++index].Period != 0) ;
	} // if

	if(task_list[index].Period == 0)
    1ddc:	8c 2f       	mov	r24, r28
    1dde:	90 e0       	ldi	r25, 0x00	; 0
	{
		task_list[index].pFunction    = task_ptr;       // Pointer to Function
    1de0:	ec 01       	movw	r28, r24
    1de2:	cc 0f       	add	r28, r28
    1de4:	dd 1f       	adc	r29, r29
    1de6:	c8 0f       	add	r28, r24
    1de8:	d9 1f       	adc	r29, r25
    1dea:	cc 0f       	add	r28, r28
    1dec:	dd 1f       	adc	r29, r29
    1dee:	cc 0f       	add	r28, r28
    1df0:	dd 1f       	adc	r29, r29
    1df2:	cc 0f       	add	r28, r28
    1df4:	dd 1f       	adc	r29, r29
    1df6:	4e 01       	movw	r8, r28
    1df8:	88 0e       	add	r8, r24
    1dfa:	99 1e       	adc	r9, r25
    1dfc:	e4 01       	movw	r28, r8
    1dfe:	c3 5f       	subi	r28, 0xF3	; 243
    1e00:	db 4f       	sbci	r29, 0xFB	; 251
    1e02:	f9 82       	std	Y+1, r15	; 0x01
    1e04:	e8 82       	st	Y, r14
		task_list[index].Period       = temp2;          // Period in msec.
    1e06:	3f 87       	std	Y+15, r19	; 0x0f
    1e08:	2e 87       	std	Y+14, r18	; 0x0e
		task_list[index].Counter      = temp2;	        // Countdown timer
    1e0a:	3b 8b       	std	Y+19, r19	; 0x13
    1e0c:	2a 8b       	std	Y+18, r18	; 0x12
  Returns  : [NO_ERR, ERR_MAX_TASKS]
  ---------------------------------------------------------------------------*/
uint8_t add_task(void (*task_ptr), char *Name, uint16_t delay, uint16_t period)
{
	uint8_t  index = 0;
	uint16_t temp1 = (uint16_t)(delay  * TICKS_PER_SEC / 1000);
    1e0e:	b6 01       	movw	r22, r12
    1e10:	80 e0       	ldi	r24, 0x00	; 0
    1e12:	90 e0       	ldi	r25, 0x00	; 0
    1e14:	28 ee       	ldi	r18, 0xE8	; 232
    1e16:	33 e0       	ldi	r19, 0x03	; 3
    1e18:	40 e0       	ldi	r20, 0x00	; 0
    1e1a:	50 e0       	ldi	r21, 0x00	; 0
    1e1c:	0e 94 e4 14 	call	0x29c8	; 0x29c8 <__mulsi3>
    1e20:	0e 94 58 15 	call	0x2ab0	; 0x2ab0 <__divmodsi4>
    1e24:	39 8b       	std	Y+17, r19	; 0x11
    1e26:	28 8b       	std	Y+16, r18	; 0x10
	{
		task_list[index].pFunction    = task_ptr;       // Pointer to Function
		task_list[index].Period       = temp2;          // Period in msec.
		task_list[index].Counter      = temp2;	        // Countdown timer
		task_list[index].Delay        = temp1;          // Initial delay before start
		task_list[index].Status      |= TASK_ENABLED;   // Enable task by default
    1e28:	8c 89       	ldd	r24, Y+20	; 0x14
    1e2a:	82 60       	ori	r24, 0x02	; 2
		task_list[index].Status      &= ~TASK_READY;    // Task not ready to run
    1e2c:	8e 7f       	andi	r24, 0xFE	; 254
    1e2e:	8c 8b       	std	Y+20, r24	; 0x14
		task_list[index].Duration     = 0;              // Actual Task Duration
    1e30:	1e 8a       	std	Y+22, r1	; 0x16
    1e32:	1d 8a       	std	Y+21, r1	; 0x15
		task_list[index].Duration_Max = 0;              // Max. Task Duration
    1e34:	18 8e       	std	Y+24, r1	; 0x18
    1e36:	1f 8a       	std	Y+23, r1	; 0x17
		strncpy(task_list[index].Name, Name, NAME_LEN); // Name of Task
    1e38:	c4 01       	movw	r24, r8
    1e3a:	81 5f       	subi	r24, 0xF1	; 241
    1e3c:	9b 4f       	sbci	r25, 0xFB	; 251
    1e3e:	b5 01       	movw	r22, r10
    1e40:	4c e0       	ldi	r20, 0x0C	; 12
    1e42:	50 e0       	ldi	r21, 0x00	; 0
    1e44:	0e 94 a7 15 	call	0x2b4e	; 0x2b4e <strncpy>
		max_tasks++; // increase number of tasks
    1e48:	1f 5f       	subi	r17, 0xFF	; 255
    1e4a:	10 93 18 03 	sts	0x0318, r17
	} // if
	return NO_ERR;
    1e4e:	80 e0       	ldi	r24, 0x00	; 0
    1e50:	01 c0       	rjmp	.+2      	; 0x1e54 <add_task+0x100>
	uint8_t  index = 0;
	uint16_t temp1 = (uint16_t)(delay  * TICKS_PER_SEC / 1000);
	uint16_t temp2 = (uint16_t)(period * TICKS_PER_SEC / 1000);

	if (max_tasks >= MAX_TASKS)
		return ERR_MAX_TASKS;
    1e52:	86 e0       	ldi	r24, 0x06	; 6
		task_list[index].Duration_Max = 0;              // Max. Task Duration
		strncpy(task_list[index].Name, Name, NAME_LEN); // Name of Task
		max_tasks++; // increase number of tasks
	} // if
	return NO_ERR;
} // add_task()
    1e54:	df 91       	pop	r29
    1e56:	cf 91       	pop	r28
    1e58:	1f 91       	pop	r17
    1e5a:	ff 90       	pop	r15
    1e5c:	ef 90       	pop	r14
    1e5e:	df 90       	pop	r13
    1e60:	cf 90       	pop	r12
    1e62:	bf 90       	pop	r11
    1e64:	af 90       	pop	r10
    1e66:	9f 90       	pop	r9
    1e68:	8f 90       	pop	r8
    1e6a:	7f 90       	pop	r7
    1e6c:	6f 90       	pop	r6
    1e6e:	5f 90       	pop	r5
    1e70:	4f 90       	pop	r4
    1e72:	08 95       	ret

00001e74 <enable_task>:
  Purpose  : Enable a task.
  Variables: Name: Name of task to enable
  Returns  : error [NO_ERR, ERR_NAME, ERR_EMPTY]
  ---------------------------------------------------------------------------*/
uint8_t enable_task(char *Name)
{
    1e74:	bf 92       	push	r11
    1e76:	cf 92       	push	r12
    1e78:	df 92       	push	r13
    1e7a:	ef 92       	push	r14
    1e7c:	ff 92       	push	r15
    1e7e:	0f 93       	push	r16
    1e80:	1f 93       	push	r17
    1e82:	cf 93       	push	r28
    1e84:	df 93       	push	r29
    1e86:	6c 01       	movw	r12, r24
	uint8_t index = 0;
	bool    found = false;
	
	//go through the active tasks
	if(task_list[index].Period != 0)
    1e88:	80 91 1b 04 	lds	r24, 0x041B
    1e8c:	90 91 1c 04 	lds	r25, 0x041C
    1e90:	00 97       	sbiw	r24, 0x00	; 0
    1e92:	09 f4       	brne	.+2      	; 0x1e96 <enable_task+0x22>
    1e94:	57 c0       	rjmp	.+174    	; 0x1f44 <enable_task+0xd0>
	{
		while ((task_list[index].Period != 0) && !found)
    1e96:	c0 e0       	ldi	r28, 0x00	; 0
    1e98:	d0 e0       	ldi	r29, 0x00	; 0
{
	uint8_t index = 0;
	bool    found = false;
	
	//go through the active tasks
	if(task_list[index].Period != 0)
    1e9a:	10 e0       	ldi	r17, 0x00	; 0
	{
		while ((task_list[index].Period != 0) && !found)
		{
			if (!strcmp(task_list[index].Name,Name))
    1e9c:	00 e0       	ldi	r16, 0x00	; 0
			{
				task_list[index].Status |= TASK_ENABLED;
    1e9e:	0f 2e       	mov	r0, r31
    1ea0:	fd e0       	ldi	r31, 0x0D	; 13
    1ea2:	ef 2e       	mov	r14, r31
    1ea4:	f4 e0       	ldi	r31, 0x04	; 4
    1ea6:	ff 2e       	mov	r15, r31
    1ea8:	f0 2d       	mov	r31, r0
				found = true;
    1eaa:	bb 24       	eor	r11, r11
    1eac:	b3 94       	inc	r11
	//go through the active tasks
	if(task_list[index].Period != 0)
	{
		while ((task_list[index].Period != 0) && !found)
		{
			if (!strcmp(task_list[index].Name,Name))
    1eae:	ce 01       	movw	r24, r28
    1eb0:	88 0f       	add	r24, r24
    1eb2:	99 1f       	adc	r25, r25
    1eb4:	8c 0f       	add	r24, r28
    1eb6:	9d 1f       	adc	r25, r29
    1eb8:	88 0f       	add	r24, r24
    1eba:	99 1f       	adc	r25, r25
    1ebc:	88 0f       	add	r24, r24
    1ebe:	99 1f       	adc	r25, r25
    1ec0:	88 0f       	add	r24, r24
    1ec2:	99 1f       	adc	r25, r25
    1ec4:	8c 0f       	add	r24, r28
    1ec6:	9d 1f       	adc	r25, r29
    1ec8:	81 5f       	subi	r24, 0xF1	; 241
    1eca:	9b 4f       	sbci	r25, 0xFB	; 251
    1ecc:	b6 01       	movw	r22, r12
    1ece:	0e 94 9e 15 	call	0x2b3c	; 0x2b3c <strcmp>
    1ed2:	28 2f       	mov	r18, r24
    1ed4:	39 2f       	mov	r19, r25
    1ed6:	21 15       	cp	r18, r1
    1ed8:	31 05       	cpc	r19, r1
    1eda:	a1 f4       	brne	.+40     	; 0x1f04 <enable_task+0x90>
			{
				task_list[index].Status |= TASK_ENABLED;
    1edc:	ce 01       	movw	r24, r28
    1ede:	88 0f       	add	r24, r24
    1ee0:	99 1f       	adc	r25, r25
    1ee2:	8c 0f       	add	r24, r28
    1ee4:	9d 1f       	adc	r25, r29
    1ee6:	88 0f       	add	r24, r24
    1ee8:	99 1f       	adc	r25, r25
    1eea:	88 0f       	add	r24, r24
    1eec:	99 1f       	adc	r25, r25
    1eee:	88 0f       	add	r24, r24
    1ef0:	99 1f       	adc	r25, r25
    1ef2:	c8 0f       	add	r28, r24
    1ef4:	d9 1f       	adc	r29, r25
    1ef6:	ce 0d       	add	r28, r14
    1ef8:	df 1d       	adc	r29, r15
    1efa:	8c 89       	ldd	r24, Y+20	; 0x14
    1efc:	82 60       	ori	r24, 0x02	; 2
    1efe:	8c 8b       	std	Y+20, r24	; 0x14
				found = true;
    1f00:	2b 2d       	mov	r18, r11
    1f02:	01 c0       	rjmp	.+2      	; 0x1f06 <enable_task+0x92>
	//go through the active tasks
	if(task_list[index].Period != 0)
	{
		while ((task_list[index].Period != 0) && !found)
		{
			if (!strcmp(task_list[index].Name,Name))
    1f04:	20 2f       	mov	r18, r16
			{
				task_list[index].Status |= TASK_ENABLED;
				found = true;
			} // if
			index++;
    1f06:	1f 5f       	subi	r17, 0xFF	; 255
	bool    found = false;
	
	//go through the active tasks
	if(task_list[index].Period != 0)
	{
		while ((task_list[index].Period != 0) && !found)
    1f08:	c1 2f       	mov	r28, r17
    1f0a:	d0 e0       	ldi	r29, 0x00	; 0
    1f0c:	fe 01       	movw	r30, r28
    1f0e:	ee 0f       	add	r30, r30
    1f10:	ff 1f       	adc	r31, r31
    1f12:	ec 0f       	add	r30, r28
    1f14:	fd 1f       	adc	r31, r29
    1f16:	ee 0f       	add	r30, r30
    1f18:	ff 1f       	adc	r31, r31
    1f1a:	ee 0f       	add	r30, r30
    1f1c:	ff 1f       	adc	r31, r31
    1f1e:	ee 0f       	add	r30, r30
    1f20:	ff 1f       	adc	r31, r31
    1f22:	ec 0f       	add	r30, r28
    1f24:	fd 1f       	adc	r31, r29
    1f26:	ee 0d       	add	r30, r14
    1f28:	ff 1d       	adc	r31, r15
    1f2a:	86 85       	ldd	r24, Z+14	; 0x0e
    1f2c:	97 85       	ldd	r25, Z+15	; 0x0f
    1f2e:	00 97       	sbiw	r24, 0x00	; 0
    1f30:	29 f0       	breq	.+10     	; 0x1f3c <enable_task+0xc8>
    1f32:	22 23       	and	r18, r18
    1f34:	09 f4       	brne	.+2      	; 0x1f38 <enable_task+0xc4>
    1f36:	bb cf       	rjmp	.-138    	; 0x1eae <enable_task+0x3a>
		} // while
	} // if
	else return ERR_EMPTY;
	if (!found)
	     return ERR_NAME;
	else return NO_ERR;	
    1f38:	80 e0       	ldi	r24, 0x00	; 0
    1f3a:	07 c0       	rjmp	.+14     	; 0x1f4a <enable_task+0xd6>
			} // if
			index++;
		} // while
	} // if
	else return ERR_EMPTY;
	if (!found)
    1f3c:	22 23       	and	r18, r18
    1f3e:	21 f0       	breq	.+8      	; 0x1f48 <enable_task+0xd4>
	     return ERR_NAME;
	else return NO_ERR;	
    1f40:	80 e0       	ldi	r24, 0x00	; 0
    1f42:	03 c0       	rjmp	.+6      	; 0x1f4a <enable_task+0xd6>
				found = true;
			} // if
			index++;
		} // while
	} // if
	else return ERR_EMPTY;
    1f44:	85 e0       	ldi	r24, 0x05	; 5
    1f46:	01 c0       	rjmp	.+2      	; 0x1f4a <enable_task+0xd6>
	if (!found)
	     return ERR_NAME;
    1f48:	84 e0       	ldi	r24, 0x04	; 4
	else return NO_ERR;	
} // enable_task()
    1f4a:	df 91       	pop	r29
    1f4c:	cf 91       	pop	r28
    1f4e:	1f 91       	pop	r17
    1f50:	0f 91       	pop	r16
    1f52:	ff 90       	pop	r15
    1f54:	ef 90       	pop	r14
    1f56:	df 90       	pop	r13
    1f58:	cf 90       	pop	r12
    1f5a:	bf 90       	pop	r11
    1f5c:	08 95       	ret

00001f5e <disable_task>:
  Purpose  : Disable a task.
  Variables: Name: Name of task to disable
  Returns  : error [NO_ERR, ERR_NAME, ERR_EMPTY]
  ---------------------------------------------------------------------------*/
uint8_t disable_task(char *Name)
{
    1f5e:	bf 92       	push	r11
    1f60:	cf 92       	push	r12
    1f62:	df 92       	push	r13
    1f64:	ef 92       	push	r14
    1f66:	ff 92       	push	r15
    1f68:	0f 93       	push	r16
    1f6a:	1f 93       	push	r17
    1f6c:	cf 93       	push	r28
    1f6e:	df 93       	push	r29
    1f70:	6c 01       	movw	r12, r24
	uint8_t index = 0;
	bool    found = false;
	
	//go through the active tasks
	if(task_list[index].Period != 0)
    1f72:	80 91 1b 04 	lds	r24, 0x041B
    1f76:	90 91 1c 04 	lds	r25, 0x041C
    1f7a:	00 97       	sbiw	r24, 0x00	; 0
    1f7c:	09 f4       	brne	.+2      	; 0x1f80 <disable_task+0x22>
    1f7e:	57 c0       	rjmp	.+174    	; 0x202e <disable_task+0xd0>
	{
		while ((task_list[index].Period != 0) && !found)
    1f80:	c0 e0       	ldi	r28, 0x00	; 0
    1f82:	d0 e0       	ldi	r29, 0x00	; 0
{
	uint8_t index = 0;
	bool    found = false;
	
	//go through the active tasks
	if(task_list[index].Period != 0)
    1f84:	10 e0       	ldi	r17, 0x00	; 0
	{
		while ((task_list[index].Period != 0) && !found)
		{
			if (!strcmp(task_list[index].Name,Name))
    1f86:	00 e0       	ldi	r16, 0x00	; 0
			{
				task_list[index].Status &= ~TASK_ENABLED;
    1f88:	0f 2e       	mov	r0, r31
    1f8a:	fd e0       	ldi	r31, 0x0D	; 13
    1f8c:	ef 2e       	mov	r14, r31
    1f8e:	f4 e0       	ldi	r31, 0x04	; 4
    1f90:	ff 2e       	mov	r15, r31
    1f92:	f0 2d       	mov	r31, r0
				found = true;
    1f94:	bb 24       	eor	r11, r11
    1f96:	b3 94       	inc	r11
	//go through the active tasks
	if(task_list[index].Period != 0)
	{
		while ((task_list[index].Period != 0) && !found)
		{
			if (!strcmp(task_list[index].Name,Name))
    1f98:	ce 01       	movw	r24, r28
    1f9a:	88 0f       	add	r24, r24
    1f9c:	99 1f       	adc	r25, r25
    1f9e:	8c 0f       	add	r24, r28
    1fa0:	9d 1f       	adc	r25, r29
    1fa2:	88 0f       	add	r24, r24
    1fa4:	99 1f       	adc	r25, r25
    1fa6:	88 0f       	add	r24, r24
    1fa8:	99 1f       	adc	r25, r25
    1faa:	88 0f       	add	r24, r24
    1fac:	99 1f       	adc	r25, r25
    1fae:	8c 0f       	add	r24, r28
    1fb0:	9d 1f       	adc	r25, r29
    1fb2:	81 5f       	subi	r24, 0xF1	; 241
    1fb4:	9b 4f       	sbci	r25, 0xFB	; 251
    1fb6:	b6 01       	movw	r22, r12
    1fb8:	0e 94 9e 15 	call	0x2b3c	; 0x2b3c <strcmp>
    1fbc:	28 2f       	mov	r18, r24
    1fbe:	39 2f       	mov	r19, r25
    1fc0:	21 15       	cp	r18, r1
    1fc2:	31 05       	cpc	r19, r1
    1fc4:	a1 f4       	brne	.+40     	; 0x1fee <disable_task+0x90>
			{
				task_list[index].Status &= ~TASK_ENABLED;
    1fc6:	ce 01       	movw	r24, r28
    1fc8:	88 0f       	add	r24, r24
    1fca:	99 1f       	adc	r25, r25
    1fcc:	8c 0f       	add	r24, r28
    1fce:	9d 1f       	adc	r25, r29
    1fd0:	88 0f       	add	r24, r24
    1fd2:	99 1f       	adc	r25, r25
    1fd4:	88 0f       	add	r24, r24
    1fd6:	99 1f       	adc	r25, r25
    1fd8:	88 0f       	add	r24, r24
    1fda:	99 1f       	adc	r25, r25
    1fdc:	c8 0f       	add	r28, r24
    1fde:	d9 1f       	adc	r29, r25
    1fe0:	ce 0d       	add	r28, r14
    1fe2:	df 1d       	adc	r29, r15
    1fe4:	8c 89       	ldd	r24, Y+20	; 0x14
    1fe6:	8d 7f       	andi	r24, 0xFD	; 253
    1fe8:	8c 8b       	std	Y+20, r24	; 0x14
				found = true;
    1fea:	2b 2d       	mov	r18, r11
    1fec:	01 c0       	rjmp	.+2      	; 0x1ff0 <disable_task+0x92>
	//go through the active tasks
	if(task_list[index].Period != 0)
	{
		while ((task_list[index].Period != 0) && !found)
		{
			if (!strcmp(task_list[index].Name,Name))
    1fee:	20 2f       	mov	r18, r16
			{
				task_list[index].Status &= ~TASK_ENABLED;
				found = true;
			} // if
			index++;
    1ff0:	1f 5f       	subi	r17, 0xFF	; 255
	bool    found = false;
	
	//go through the active tasks
	if(task_list[index].Period != 0)
	{
		while ((task_list[index].Period != 0) && !found)
    1ff2:	c1 2f       	mov	r28, r17
    1ff4:	d0 e0       	ldi	r29, 0x00	; 0
    1ff6:	fe 01       	movw	r30, r28
    1ff8:	ee 0f       	add	r30, r30
    1ffa:	ff 1f       	adc	r31, r31
    1ffc:	ec 0f       	add	r30, r28
    1ffe:	fd 1f       	adc	r31, r29
    2000:	ee 0f       	add	r30, r30
    2002:	ff 1f       	adc	r31, r31
    2004:	ee 0f       	add	r30, r30
    2006:	ff 1f       	adc	r31, r31
    2008:	ee 0f       	add	r30, r30
    200a:	ff 1f       	adc	r31, r31
    200c:	ec 0f       	add	r30, r28
    200e:	fd 1f       	adc	r31, r29
    2010:	ee 0d       	add	r30, r14
    2012:	ff 1d       	adc	r31, r15
    2014:	86 85       	ldd	r24, Z+14	; 0x0e
    2016:	97 85       	ldd	r25, Z+15	; 0x0f
    2018:	00 97       	sbiw	r24, 0x00	; 0
    201a:	29 f0       	breq	.+10     	; 0x2026 <disable_task+0xc8>
    201c:	22 23       	and	r18, r18
    201e:	09 f4       	brne	.+2      	; 0x2022 <disable_task+0xc4>
    2020:	bb cf       	rjmp	.-138    	; 0x1f98 <disable_task+0x3a>
		} // while
	} // if
	else return ERR_EMPTY;
	if (!found)
	     return ERR_NAME;
	else return NO_ERR;	
    2022:	80 e0       	ldi	r24, 0x00	; 0
    2024:	07 c0       	rjmp	.+14     	; 0x2034 <disable_task+0xd6>
			} // if
			index++;
		} // while
	} // if
	else return ERR_EMPTY;
	if (!found)
    2026:	22 23       	and	r18, r18
    2028:	21 f0       	breq	.+8      	; 0x2032 <disable_task+0xd4>
	     return ERR_NAME;
	else return NO_ERR;	
    202a:	80 e0       	ldi	r24, 0x00	; 0
    202c:	03 c0       	rjmp	.+6      	; 0x2034 <disable_task+0xd6>
				found = true;
			} // if
			index++;
		} // while
	} // if
	else return ERR_EMPTY;
    202e:	85 e0       	ldi	r24, 0x05	; 5
    2030:	01 c0       	rjmp	.+2      	; 0x2034 <disable_task+0xd6>
	if (!found)
	     return ERR_NAME;
    2032:	84 e0       	ldi	r24, 0x04	; 4
	else return NO_ERR;	
} // disable_task()
    2034:	df 91       	pop	r29
    2036:	cf 91       	pop	r28
    2038:	1f 91       	pop	r17
    203a:	0f 91       	pop	r16
    203c:	ff 90       	pop	r15
    203e:	ef 90       	pop	r14
    2040:	df 90       	pop	r13
    2042:	cf 90       	pop	r12
    2044:	bf 90       	pop	r11
    2046:	08 95       	ret

00002048 <set_task_time_period>:
  Variables: msec: the time in milliseconds
             name: the name of the task to set the time for
  Returns  : error [NO_ERR, ERR_NAME, ERR_EMPTY]
  ---------------------------------------------------------------------------*/
uint8_t set_task_time_period(uint16_t Period, char *Name)
{
    2048:	8f 92       	push	r8
    204a:	9f 92       	push	r9
    204c:	bf 92       	push	r11
    204e:	cf 92       	push	r12
    2050:	df 92       	push	r13
    2052:	ef 92       	push	r14
    2054:	ff 92       	push	r15
    2056:	0f 93       	push	r16
    2058:	1f 93       	push	r17
    205a:	cf 93       	push	r28
    205c:	df 93       	push	r29
    205e:	6b 01       	movw	r12, r22
	uint8_t index = 0;
	bool    found = false;
	
	//go through the active tasks
	if(task_list[index].Period != 0)
    2060:	20 91 1b 04 	lds	r18, 0x041B
    2064:	30 91 1c 04 	lds	r19, 0x041C
    2068:	21 15       	cp	r18, r1
    206a:	31 05       	cpc	r19, r1
    206c:	09 f4       	brne	.+2      	; 0x2070 <set_task_time_period+0x28>
    206e:	62 c0       	rjmp	.+196    	; 0x2134 <set_task_time_period+0xec>
	{
		while ((task_list[index].Period != 0) && !found)
		{
			if (!strcmp(task_list[index].Name,Name))
			{
				task_list[index].Period = (uint16_t)(Period * TICKS_PER_SEC / 1000);
    2070:	bc 01       	movw	r22, r24
    2072:	80 e0       	ldi	r24, 0x00	; 0
    2074:	90 e0       	ldi	r25, 0x00	; 0
    2076:	28 ee       	ldi	r18, 0xE8	; 232
    2078:	33 e0       	ldi	r19, 0x03	; 3
    207a:	40 e0       	ldi	r20, 0x00	; 0
    207c:	50 e0       	ldi	r21, 0x00	; 0
    207e:	0e 94 e4 14 	call	0x29c8	; 0x29c8 <__mulsi3>
    2082:	0e 94 58 15 	call	0x2ab0	; 0x2ab0 <__divmodsi4>
    2086:	49 01       	movw	r8, r18
	bool    found = false;
	
	//go through the active tasks
	if(task_list[index].Period != 0)
	{
		while ((task_list[index].Period != 0) && !found)
    2088:	c0 e0       	ldi	r28, 0x00	; 0
    208a:	d0 e0       	ldi	r29, 0x00	; 0
		{
			if (!strcmp(task_list[index].Name,Name))
			{
				task_list[index].Period = (uint16_t)(Period * TICKS_PER_SEC / 1000);
    208c:	10 e0       	ldi	r17, 0x00	; 0
	//go through the active tasks
	if(task_list[index].Period != 0)
	{
		while ((task_list[index].Period != 0) && !found)
		{
			if (!strcmp(task_list[index].Name,Name))
    208e:	00 e0       	ldi	r16, 0x00	; 0
			{
				task_list[index].Period = (uint16_t)(Period * TICKS_PER_SEC / 1000);
    2090:	0f 2e       	mov	r0, r31
    2092:	fd e0       	ldi	r31, 0x0D	; 13
    2094:	ef 2e       	mov	r14, r31
    2096:	f4 e0       	ldi	r31, 0x04	; 4
    2098:	ff 2e       	mov	r15, r31
    209a:	f0 2d       	mov	r31, r0
				found = true;
    209c:	bb 24       	eor	r11, r11
    209e:	b3 94       	inc	r11
	//go through the active tasks
	if(task_list[index].Period != 0)
	{
		while ((task_list[index].Period != 0) && !found)
		{
			if (!strcmp(task_list[index].Name,Name))
    20a0:	ce 01       	movw	r24, r28
    20a2:	88 0f       	add	r24, r24
    20a4:	99 1f       	adc	r25, r25
    20a6:	8c 0f       	add	r24, r28
    20a8:	9d 1f       	adc	r25, r29
    20aa:	88 0f       	add	r24, r24
    20ac:	99 1f       	adc	r25, r25
    20ae:	88 0f       	add	r24, r24
    20b0:	99 1f       	adc	r25, r25
    20b2:	88 0f       	add	r24, r24
    20b4:	99 1f       	adc	r25, r25
    20b6:	8c 0f       	add	r24, r28
    20b8:	9d 1f       	adc	r25, r29
    20ba:	81 5f       	subi	r24, 0xF1	; 241
    20bc:	9b 4f       	sbci	r25, 0xFB	; 251
    20be:	b6 01       	movw	r22, r12
    20c0:	0e 94 9e 15 	call	0x2b3c	; 0x2b3c <strcmp>
    20c4:	28 2f       	mov	r18, r24
    20c6:	39 2f       	mov	r19, r25
    20c8:	21 15       	cp	r18, r1
    20ca:	31 05       	cpc	r19, r1
    20cc:	99 f4       	brne	.+38     	; 0x20f4 <set_task_time_period+0xac>
			{
				task_list[index].Period = (uint16_t)(Period * TICKS_PER_SEC / 1000);
    20ce:	ce 01       	movw	r24, r28
    20d0:	88 0f       	add	r24, r24
    20d2:	99 1f       	adc	r25, r25
    20d4:	8c 0f       	add	r24, r28
    20d6:	9d 1f       	adc	r25, r29
    20d8:	88 0f       	add	r24, r24
    20da:	99 1f       	adc	r25, r25
    20dc:	88 0f       	add	r24, r24
    20de:	99 1f       	adc	r25, r25
    20e0:	88 0f       	add	r24, r24
    20e2:	99 1f       	adc	r25, r25
    20e4:	c8 0f       	add	r28, r24
    20e6:	d9 1f       	adc	r29, r25
    20e8:	ce 0d       	add	r28, r14
    20ea:	df 1d       	adc	r29, r15
    20ec:	9f 86       	std	Y+15, r9	; 0x0f
    20ee:	8e 86       	std	Y+14, r8	; 0x0e
				found = true;
    20f0:	2b 2d       	mov	r18, r11
    20f2:	01 c0       	rjmp	.+2      	; 0x20f6 <set_task_time_period+0xae>
	//go through the active tasks
	if(task_list[index].Period != 0)
	{
		while ((task_list[index].Period != 0) && !found)
		{
			if (!strcmp(task_list[index].Name,Name))
    20f4:	20 2f       	mov	r18, r16
			{
				task_list[index].Period = (uint16_t)(Period * TICKS_PER_SEC / 1000);
				found = true;
			} // if
			index++;
    20f6:	1f 5f       	subi	r17, 0xFF	; 255
	bool    found = false;
	
	//go through the active tasks
	if(task_list[index].Period != 0)
	{
		while ((task_list[index].Period != 0) && !found)
    20f8:	c1 2f       	mov	r28, r17
    20fa:	d0 e0       	ldi	r29, 0x00	; 0
    20fc:	fe 01       	movw	r30, r28
    20fe:	ee 0f       	add	r30, r30
    2100:	ff 1f       	adc	r31, r31
    2102:	ec 0f       	add	r30, r28
    2104:	fd 1f       	adc	r31, r29
    2106:	ee 0f       	add	r30, r30
    2108:	ff 1f       	adc	r31, r31
    210a:	ee 0f       	add	r30, r30
    210c:	ff 1f       	adc	r31, r31
    210e:	ee 0f       	add	r30, r30
    2110:	ff 1f       	adc	r31, r31
    2112:	ec 0f       	add	r30, r28
    2114:	fd 1f       	adc	r31, r29
    2116:	ee 0d       	add	r30, r14
    2118:	ff 1d       	adc	r31, r15
    211a:	86 85       	ldd	r24, Z+14	; 0x0e
    211c:	97 85       	ldd	r25, Z+15	; 0x0f
    211e:	00 97       	sbiw	r24, 0x00	; 0
    2120:	29 f0       	breq	.+10     	; 0x212c <set_task_time_period+0xe4>
    2122:	22 23       	and	r18, r18
    2124:	09 f4       	brne	.+2      	; 0x2128 <set_task_time_period+0xe0>
    2126:	bc cf       	rjmp	.-136    	; 0x20a0 <set_task_time_period+0x58>
		} // while
	} // if
	else return ERR_EMPTY;
	if (!found)
	     return ERR_NAME;
	else return NO_ERR;	
    2128:	80 e0       	ldi	r24, 0x00	; 0
    212a:	07 c0       	rjmp	.+14     	; 0x213a <set_task_time_period+0xf2>
			} // if
			index++;
		} // while
	} // if
	else return ERR_EMPTY;
	if (!found)
    212c:	22 23       	and	r18, r18
    212e:	21 f0       	breq	.+8      	; 0x2138 <set_task_time_period+0xf0>
	     return ERR_NAME;
	else return NO_ERR;	
    2130:	80 e0       	ldi	r24, 0x00	; 0
    2132:	03 c0       	rjmp	.+6      	; 0x213a <set_task_time_period+0xf2>
				found = true;
			} // if
			index++;
		} // while
	} // if
	else return ERR_EMPTY;
    2134:	85 e0       	ldi	r24, 0x05	; 5
    2136:	01 c0       	rjmp	.+2      	; 0x213a <set_task_time_period+0xf2>
	if (!found)
	     return ERR_NAME;
    2138:	84 e0       	ldi	r24, 0x04	; 4
	else return NO_ERR;	
} // set_task_time_period()
    213a:	df 91       	pop	r29
    213c:	cf 91       	pop	r28
    213e:	1f 91       	pop	r17
    2140:	0f 91       	pop	r16
    2142:	ff 90       	pop	r15
    2144:	ef 90       	pop	r14
    2146:	df 90       	pop	r13
    2148:	cf 90       	pop	r12
    214a:	bf 90       	pop	r11
    214c:	9f 90       	pop	r9
    214e:	8f 90       	pop	r8
    2150:	08 95       	ret

00002152 <list_all_tasks>:
  Variables: 
  rs232_udp: [RS232_USB, ETHERNET_UDP] Response via RS232/USB or Ethernet/Udp
 Returns  : -
  ---------------------------------------------------------------------------*/
void list_all_tasks(void)
{
    2152:	af 92       	push	r10
    2154:	bf 92       	push	r11
    2156:	cf 92       	push	r12
    2158:	df 92       	push	r13
    215a:	ef 92       	push	r14
    215c:	ff 92       	push	r15
    215e:	1f 93       	push	r17
    2160:	cf 93       	push	r28
    2162:	df 93       	push	r29
    2164:	cd b7       	in	r28, 0x3d	; 61
    2166:	de b7       	in	r29, 0x3e	; 62
    2168:	c6 55       	subi	r28, 0x56	; 86
    216a:	d0 40       	sbci	r29, 0x00	; 0
    216c:	0f b6       	in	r0, 0x3f	; 63
    216e:	f8 94       	cli
    2170:	de bf       	out	0x3e, r29	; 62
    2172:	0f be       	out	0x3f, r0	; 63
    2174:	cd bf       	out	0x3d, r28	; 61
	uint8_t index = 0;
	char    s[50];
	const char hdr[] = "Task-Name   T(ms) Stat T(ms) M(ms)\n";
    2176:	de 01       	movw	r26, r28
    2178:	d3 96       	adiw	r26, 0x33	; 51
    217a:	ef ed       	ldi	r30, 0xDF	; 223
    217c:	f2 e0       	ldi	r31, 0x02	; 2
    217e:	84 e2       	ldi	r24, 0x24	; 36
    2180:	01 90       	ld	r0, Z+
    2182:	0d 92       	st	X+, r0
    2184:	81 50       	subi	r24, 0x01	; 1
    2186:	e1 f7       	brne	.-8      	; 0x2180 <list_all_tasks+0x2e>
	xputs(hdr);
    2188:	ce 01       	movw	r24, r28
    218a:	c3 96       	adiw	r24, 0x33	; 51
    218c:	0e 94 c2 12 	call	0x2584	; 0x2584 <xputs>
	//go through the active tasks
	if(task_list[index].Period != 0)
    2190:	40 91 1b 04 	lds	r20, 0x041B
    2194:	50 91 1c 04 	lds	r21, 0x041C
    2198:	41 15       	cp	r20, r1
    219a:	51 05       	cpc	r21, r1
    219c:	09 f4       	brne	.+2      	; 0x21a0 <list_all_tasks+0x4e>
    219e:	79 c0       	rjmp	.+242    	; 0x2292 <list_all_tasks+0x140>
	{
		while (task_list[index].Period != 0)
    21a0:	20 e0       	ldi	r18, 0x00	; 0
    21a2:	30 e0       	ldi	r19, 0x00	; 0
	uint8_t index = 0;
	char    s[50];
	const char hdr[] = "Task-Name   T(ms) Stat T(ms) M(ms)\n";
	xputs(hdr);
	//go through the active tasks
	if(task_list[index].Period != 0)
    21a4:	10 e0       	ldi	r17, 0x00	; 0
	{
		while (task_list[index].Period != 0)
		{
			sprintf(s,"%-11s %5d 0x%02x   %03d   %03d\n", task_list[index].Name, 
    21a6:	7e 01       	movw	r14, r28
    21a8:	08 94       	sec
    21aa:	e1 1c       	adc	r14, r1
    21ac:	f1 1c       	adc	r15, r1
    21ae:	0f 2e       	mov	r0, r31
    21b0:	ff eb       	ldi	r31, 0xBF	; 191
    21b2:	af 2e       	mov	r10, r31
    21b4:	f2 e0       	ldi	r31, 0x02	; 2
    21b6:	bf 2e       	mov	r11, r31
    21b8:	f0 2d       	mov	r31, r0
					  task_list[index].Period  , task_list[index].Status, 
    21ba:	0f 2e       	mov	r0, r31
    21bc:	fd e0       	ldi	r31, 0x0D	; 13
    21be:	cf 2e       	mov	r12, r31
    21c0:	f4 e0       	ldi	r31, 0x04	; 4
    21c2:	df 2e       	mov	r13, r31
    21c4:	f0 2d       	mov	r31, r0
	//go through the active tasks
	if(task_list[index].Period != 0)
	{
		while (task_list[index].Period != 0)
		{
			sprintf(s,"%-11s %5d 0x%02x   %03d   %03d\n", task_list[index].Name, 
    21c6:	8d b7       	in	r24, 0x3d	; 61
    21c8:	9e b7       	in	r25, 0x3e	; 62
    21ca:	0e 97       	sbiw	r24, 0x0e	; 14
    21cc:	0f b6       	in	r0, 0x3f	; 63
    21ce:	f8 94       	cli
    21d0:	9e bf       	out	0x3e, r25	; 62
    21d2:	0f be       	out	0x3f, r0	; 63
    21d4:	8d bf       	out	0x3d, r24	; 61
    21d6:	ad b7       	in	r26, 0x3d	; 61
    21d8:	be b7       	in	r27, 0x3e	; 62
    21da:	11 96       	adiw	r26, 0x01	; 1
    21dc:	ed b7       	in	r30, 0x3d	; 61
    21de:	fe b7       	in	r31, 0x3e	; 62
    21e0:	f2 82       	std	Z+2, r15	; 0x02
    21e2:	e1 82       	std	Z+1, r14	; 0x01
    21e4:	13 96       	adiw	r26, 0x03	; 3
    21e6:	bc 92       	st	X, r11
    21e8:	ae 92       	st	-X, r10
    21ea:	12 97       	sbiw	r26, 0x02	; 2
    21ec:	c9 01       	movw	r24, r18
    21ee:	88 0f       	add	r24, r24
    21f0:	99 1f       	adc	r25, r25
    21f2:	82 0f       	add	r24, r18
    21f4:	93 1f       	adc	r25, r19
    21f6:	88 0f       	add	r24, r24
    21f8:	99 1f       	adc	r25, r25
    21fa:	88 0f       	add	r24, r24
    21fc:	99 1f       	adc	r25, r25
    21fe:	88 0f       	add	r24, r24
    2200:	99 1f       	adc	r25, r25
    2202:	82 0f       	add	r24, r18
    2204:	93 1f       	adc	r25, r19
    2206:	9c 01       	movw	r18, r24
    2208:	21 5f       	subi	r18, 0xF1	; 241
    220a:	3b 4f       	sbci	r19, 0xFB	; 251
    220c:	15 96       	adiw	r26, 0x05	; 5
    220e:	3c 93       	st	X, r19
    2210:	2e 93       	st	-X, r18
    2212:	14 97       	sbiw	r26, 0x04	; 4
    2214:	17 96       	adiw	r26, 0x07	; 7
    2216:	5c 93       	st	X, r21
    2218:	4e 93       	st	-X, r20
    221a:	16 97       	sbiw	r26, 0x06	; 6
					  task_list[index].Period  , task_list[index].Status, 
    221c:	f6 01       	movw	r30, r12
    221e:	e8 0f       	add	r30, r24
    2220:	f9 1f       	adc	r31, r25
	//go through the active tasks
	if(task_list[index].Period != 0)
	{
		while (task_list[index].Period != 0)
		{
			sprintf(s,"%-11s %5d 0x%02x   %03d   %03d\n", task_list[index].Name, 
    2222:	84 89       	ldd	r24, Z+20	; 0x14
    2224:	18 96       	adiw	r26, 0x08	; 8
    2226:	8c 93       	st	X, r24
    2228:	18 97       	sbiw	r26, 0x08	; 8
    222a:	19 96       	adiw	r26, 0x09	; 9
    222c:	1c 92       	st	X, r1
    222e:	19 97       	sbiw	r26, 0x09	; 9
    2230:	85 89       	ldd	r24, Z+21	; 0x15
    2232:	96 89       	ldd	r25, Z+22	; 0x16
    2234:	1b 96       	adiw	r26, 0x0b	; 11
    2236:	9c 93       	st	X, r25
    2238:	8e 93       	st	-X, r24
    223a:	1a 97       	sbiw	r26, 0x0a	; 10
    223c:	87 89       	ldd	r24, Z+23	; 0x17
    223e:	90 8d       	ldd	r25, Z+24	; 0x18
    2240:	1d 96       	adiw	r26, 0x0d	; 13
    2242:	9c 93       	st	X, r25
    2244:	8e 93       	st	-X, r24
    2246:	1c 97       	sbiw	r26, 0x0c	; 12
    2248:	0e 94 e5 15 	call	0x2bca	; 0x2bca <sprintf>
					  task_list[index].Period  , task_list[index].Status, 
					  task_list[index].Duration, task_list[index].Duration_Max);
			xputs(s);
    224c:	8d b7       	in	r24, 0x3d	; 61
    224e:	9e b7       	in	r25, 0x3e	; 62
    2250:	0e 96       	adiw	r24, 0x0e	; 14
    2252:	0f b6       	in	r0, 0x3f	; 63
    2254:	f8 94       	cli
    2256:	9e bf       	out	0x3e, r25	; 62
    2258:	0f be       	out	0x3f, r0	; 63
    225a:	8d bf       	out	0x3d, r24	; 61
    225c:	c7 01       	movw	r24, r14
    225e:	0e 94 c2 12 	call	0x2584	; 0x2584 <xputs>
			index++;
    2262:	1f 5f       	subi	r17, 0xFF	; 255
	const char hdr[] = "Task-Name   T(ms) Stat T(ms) M(ms)\n";
	xputs(hdr);
	//go through the active tasks
	if(task_list[index].Period != 0)
	{
		while (task_list[index].Period != 0)
    2264:	21 2f       	mov	r18, r17
    2266:	30 e0       	ldi	r19, 0x00	; 0
    2268:	f9 01       	movw	r30, r18
    226a:	ee 0f       	add	r30, r30
    226c:	ff 1f       	adc	r31, r31
    226e:	e2 0f       	add	r30, r18
    2270:	f3 1f       	adc	r31, r19
    2272:	ee 0f       	add	r30, r30
    2274:	ff 1f       	adc	r31, r31
    2276:	ee 0f       	add	r30, r30
    2278:	ff 1f       	adc	r31, r31
    227a:	ee 0f       	add	r30, r30
    227c:	ff 1f       	adc	r31, r31
    227e:	e2 0f       	add	r30, r18
    2280:	f3 1f       	adc	r31, r19
    2282:	ec 0d       	add	r30, r12
    2284:	fd 1d       	adc	r31, r13
    2286:	46 85       	ldd	r20, Z+14	; 0x0e
    2288:	57 85       	ldd	r21, Z+15	; 0x0f
    228a:	41 15       	cp	r20, r1
    228c:	51 05       	cpc	r21, r1
    228e:	09 f0       	breq	.+2      	; 0x2292 <list_all_tasks+0x140>
    2290:	9a cf       	rjmp	.-204    	; 0x21c6 <list_all_tasks+0x74>
					  task_list[index].Duration, task_list[index].Duration_Max);
			xputs(s);
			index++;
		} // while
	} // if
    2292:	ca 5a       	subi	r28, 0xAA	; 170
    2294:	df 4f       	sbci	r29, 0xFF	; 255
    2296:	0f b6       	in	r0, 0x3f	; 63
    2298:	f8 94       	cli
    229a:	de bf       	out	0x3e, r29	; 62
    229c:	0f be       	out	0x3f, r0	; 63
    229e:	cd bf       	out	0x3d, r28	; 61
    22a0:	df 91       	pop	r29
    22a2:	cf 91       	pop	r28
    22a4:	1f 91       	pop	r17
    22a6:	ff 90       	pop	r15
    22a8:	ef 90       	pop	r14
    22aa:	df 90       	pop	r13
    22ac:	cf 90       	pop	r12
    22ae:	bf 90       	pop	r11
    22b0:	af 90       	pop	r10
    22b2:	08 95       	ret

000022b4 <__vector_19>:
// in UCSR0B is set, the USART Data Register Empty Interrupt will be executed
// as long as UDRE0 is set (provided that global interrupts are enabled).
// UDRE0 is cleared by writing UDR0.
//-----------------------------------------------------------------------------
ISR(USART_UDRE_vect)
{
    22b4:	1f 92       	push	r1
    22b6:	0f 92       	push	r0
    22b8:	0f b6       	in	r0, 0x3f	; 63
    22ba:	0f 92       	push	r0
    22bc:	11 24       	eor	r1, r1
    22be:	2f 93       	push	r18
    22c0:	3f 93       	push	r19
    22c2:	4f 93       	push	r20
    22c4:	5f 93       	push	r21
    22c6:	8f 93       	push	r24
    22c8:	9f 93       	push	r25
    22ca:	ef 93       	push	r30
    22cc:	ff 93       	push	r31
  Variables: ring: pointer to a struct of type ring_buffer
  Returns  : true: buffer is empty ; false: there is still data in the ring buffer
  ---------------------------------------------------------------------------*/
static inline bool ring_buffer_is_empty(const struct ring_buffer *ring)
{
    return (ring->read_offset == ring->write_offset);
    22ce:	90 91 1d 05 	lds	r25, 0x051D
    22d2:	80 91 1c 05 	lds	r24, 0x051C
	if (!ring_buffer_is_empty(&ring_buffer_out))
    22d6:	98 17       	cp	r25, r24
    22d8:	e1 f0       	breq	.+56     	; 0x2312 <__vector_19+0x5e>
  Returns  : next byte in buffer
  ---------------------------------------------------------------------------*/
static inline uint8_t ring_buffer_get(struct ring_buffer *ring)
{
    //Assert(!ring_buffer_is_empty(ring));
    uint8_t data = ring->buffer[ring->read_offset];
    22da:	80 91 1d 05 	lds	r24, 0x051D
    22de:	e0 91 1f 05 	lds	r30, 0x051F
    22e2:	f0 91 20 05 	lds	r31, 0x0520
    22e6:	e8 0f       	add	r30, r24
    22e8:	f1 1d       	adc	r31, r1
    22ea:	50 81       	ld	r21, Z
  Variables: ring: pointer to a struct of type ring_buffer
  Returns  : the next read offset in the ring buffer
  ---------------------------------------------------------------------------*/
static inline uint8_t ring_buffer_get_next_read(const struct ring_buffer *ring)
{
    return get_next(ring->read_offset, ring->size);
    22ec:	40 91 1d 05 	lds	r20, 0x051D
             max_offset: the highest allowed offset in the ring buffer
  Returns  : next offset or 0 if we are wrapping
  ---------------------------------------------------------------------------*/
static inline uint8_t get_next(uint8_t cur_offset, uint8_t max_offset)
{
   return ((cur_offset == max_offset-1) ? 0 : cur_offset + 1);
    22f0:	24 2f       	mov	r18, r20
    22f2:	30 e0       	ldi	r19, 0x00	; 0
    22f4:	80 91 1e 05 	lds	r24, 0x051E
    22f8:	90 e0       	ldi	r25, 0x00	; 0
    22fa:	01 97       	sbiw	r24, 0x01	; 1
    22fc:	28 17       	cp	r18, r24
    22fe:	39 07       	cpc	r19, r25
    2300:	11 f0       	breq	.+4      	; 0x2306 <__vector_19+0x52>
    2302:	4f 5f       	subi	r20, 0xFF	; 255
    2304:	01 c0       	rjmp	.+2      	; 0x2308 <__vector_19+0x54>
    2306:	40 e0       	ldi	r20, 0x00	; 0
  ---------------------------------------------------------------------------*/
static inline uint8_t ring_buffer_get(struct ring_buffer *ring)
{
    //Assert(!ring_buffer_is_empty(ring));
    uint8_t data = ring->buffer[ring->read_offset];
    ring->read_offset = ring_buffer_get_next_read(ring);
    2308:	40 93 1d 05 	sts	0x051D, r20
	{   // if there is data in the ring buffer, fetch it and send it
		UDR0 = ring_buffer_get(&ring_buffer_out);
    230c:	50 93 c6 00 	sts	0x00C6, r21
    2310:	05 c0       	rjmp	.+10     	; 0x231c <__vector_19+0x68>
	}
	else
	{   // no more data to send, turn off interrupt
		UCSR0B &= ~(1 << UDRIE0);
    2312:	e1 ec       	ldi	r30, 0xC1	; 193
    2314:	f0 e0       	ldi	r31, 0x00	; 0
    2316:	80 81       	ld	r24, Z
    2318:	8f 7d       	andi	r24, 0xDF	; 223
    231a:	80 83       	st	Z, r24
	} /* else */
} /* ISR(USART_UDRE_vect) */
    231c:	ff 91       	pop	r31
    231e:	ef 91       	pop	r30
    2320:	9f 91       	pop	r25
    2322:	8f 91       	pop	r24
    2324:	5f 91       	pop	r21
    2326:	4f 91       	pop	r20
    2328:	3f 91       	pop	r19
    232a:	2f 91       	pop	r18
    232c:	0f 90       	pop	r0
    232e:	0f be       	out	0x3f, r0	; 63
    2330:	0f 90       	pop	r0
    2332:	1f 90       	pop	r1
    2334:	18 95       	reti

00002336 <__vector_18>:
// interrupt-driven data reception is used, the receive complete routine
// must read the received data from UDR0 in order to clear the RXC0 Flag,
// otherwise a new interrupt will occur once the interrupt routine terminates.
//-----------------------------------------------------------------------------
ISR(USART_RX_vect)
{
    2336:	1f 92       	push	r1
    2338:	0f 92       	push	r0
    233a:	0f b6       	in	r0, 0x3f	; 63
    233c:	0f 92       	push	r0
    233e:	11 24       	eor	r1, r1
    2340:	2f 93       	push	r18
    2342:	3f 93       	push	r19
    2344:	4f 93       	push	r20
    2346:	5f 93       	push	r21
    2348:	8f 93       	push	r24
    234a:	9f 93       	push	r25
    234c:	ef 93       	push	r30
    234e:	ff 93       	push	r31
    2350:	cf 93       	push	r28
    2352:	df 93       	push	r29
    2354:	0f 92       	push	r0
    2356:	cd b7       	in	r28, 0x3d	; 61
    2358:	de b7       	in	r29, 0x3e	; 62
  Variables: ring: pointer to a struct of type ring_buffer
  Returns  : true: buffer is full ; false: space is available in the ring buffer
  ---------------------------------------------------------------------------*/
static inline bool ring_buffer_is_full(const struct ring_buffer *ring)
{
    return (ring->read_offset == ring_buffer_get_next_write(ring));
    235a:	50 91 18 05 	lds	r21, 0x0518
  Variables: ring: pointer to a struct of type ring_buffer
  Returns  : the next write offset in the ring buffer
  ---------------------------------------------------------------------------*/
static inline uint8_t ring_buffer_get_next_write(const struct ring_buffer *ring)
{
    return get_next(ring->write_offset, ring->size);
    235e:	e8 e1       	ldi	r30, 0x18	; 24
    2360:	f5 e0       	ldi	r31, 0x05	; 5
    2362:	42 91       	ld	r20, -Z
             max_offset: the highest allowed offset in the ring buffer
  Returns  : next offset or 0 if we are wrapping
  ---------------------------------------------------------------------------*/
static inline uint8_t get_next(uint8_t cur_offset, uint8_t max_offset)
{
   return ((cur_offset == max_offset-1) ? 0 : cur_offset + 1);
    2364:	84 2f       	mov	r24, r20
    2366:	90 e0       	ldi	r25, 0x00	; 0
    2368:	22 81       	ldd	r18, Z+2	; 0x02
    236a:	30 e0       	ldi	r19, 0x00	; 0
    236c:	21 50       	subi	r18, 0x01	; 1
    236e:	30 40       	sbci	r19, 0x00	; 0
    2370:	82 17       	cp	r24, r18
    2372:	93 07       	cpc	r25, r19
    2374:	11 f0       	breq	.+4      	; 0x237a <__vector_18+0x44>
    2376:	4f 5f       	subi	r20, 0xFF	; 255
    2378:	01 c0       	rjmp	.+2      	; 0x237c <__vector_18+0x46>
    237a:	40 e0       	ldi	r20, 0x00	; 0
	volatile uint8_t ch;
	
	if (!ring_buffer_is_full(&ring_buffer_in))
    237c:	54 17       	cp	r21, r20
    237e:	f1 f0       	breq	.+60     	; 0x23bc <__vector_18+0x86>
	{
		ring_buffer_put(&ring_buffer_in, UDR0);
    2380:	80 91 c6 00 	lds	r24, 0x00C6
  Returns  : -
  ---------------------------------------------------------------------------*/
static inline void ring_buffer_put(struct ring_buffer *ring, uint8_t data)
{
    //Assert(!ring_buffer_is_full(ring));   
    ring->buffer[ring->write_offset] = data;
    2384:	90 91 17 05 	lds	r25, 0x0517
    2388:	e0 91 1a 05 	lds	r30, 0x051A
    238c:	f0 91 1b 05 	lds	r31, 0x051B
    2390:	e9 0f       	add	r30, r25
    2392:	f1 1d       	adc	r31, r1
    2394:	80 83       	st	Z, r24
  Variables: ring: pointer to a struct of type ring_buffer
  Returns  : the next write offset in the ring buffer
  ---------------------------------------------------------------------------*/
static inline uint8_t ring_buffer_get_next_write(const struct ring_buffer *ring)
{
    return get_next(ring->write_offset, ring->size);
    2396:	40 91 17 05 	lds	r20, 0x0517
             max_offset: the highest allowed offset in the ring buffer
  Returns  : next offset or 0 if we are wrapping
  ---------------------------------------------------------------------------*/
static inline uint8_t get_next(uint8_t cur_offset, uint8_t max_offset)
{
   return ((cur_offset == max_offset-1) ? 0 : cur_offset + 1);
    239a:	24 2f       	mov	r18, r20
    239c:	30 e0       	ldi	r19, 0x00	; 0
    239e:	80 91 19 05 	lds	r24, 0x0519
    23a2:	90 e0       	ldi	r25, 0x00	; 0
    23a4:	01 97       	sbiw	r24, 0x01	; 1
    23a6:	28 17       	cp	r18, r24
    23a8:	39 07       	cpc	r19, r25
    23aa:	11 f0       	breq	.+4      	; 0x23b0 <__vector_18+0x7a>
    23ac:	4f 5f       	subi	r20, 0xFF	; 255
    23ae:	01 c0       	rjmp	.+2      	; 0x23b2 <__vector_18+0x7c>
    23b0:	40 e0       	ldi	r20, 0x00	; 0
  ---------------------------------------------------------------------------*/
static inline void ring_buffer_put(struct ring_buffer *ring, uint8_t data)
{
    //Assert(!ring_buffer_is_full(ring));   
    ring->buffer[ring->write_offset] = data;
    ring->write_offset = ring_buffer_get_next_write(ring);
    23b2:	40 93 17 05 	sts	0x0517, r20
		ovf_buf_in = false;
    23b6:	10 92 16 05 	sts	0x0516, r1
    23ba:	06 c0       	rjmp	.+12     	; 0x23c8 <__vector_18+0x92>
	} // if
	else
	{
		ch = UDR0; // clear RXC0 flag
    23bc:	80 91 c6 00 	lds	r24, 0x00C6
    23c0:	89 83       	std	Y+1, r24	; 0x01
		ovf_buf_in = true;
    23c2:	81 e0       	ldi	r24, 0x01	; 1
    23c4:	80 93 16 05 	sts	0x0516, r24
	}
	isr_cnt++;
    23c8:	80 91 19 03 	lds	r24, 0x0319
    23cc:	90 91 1a 03 	lds	r25, 0x031A
    23d0:	01 96       	adiw	r24, 0x01	; 1
    23d2:	90 93 1a 03 	sts	0x031A, r25
    23d6:	80 93 19 03 	sts	0x0319, r24
} /* ISR(USART0_RX_vect) */
    23da:	0f 90       	pop	r0
    23dc:	df 91       	pop	r29
    23de:	cf 91       	pop	r28
    23e0:	ff 91       	pop	r31
    23e2:	ef 91       	pop	r30
    23e4:	9f 91       	pop	r25
    23e6:	8f 91       	pop	r24
    23e8:	5f 91       	pop	r21
    23ea:	4f 91       	pop	r20
    23ec:	3f 91       	pop	r19
    23ee:	2f 91       	pop	r18
    23f0:	0f 90       	pop	r0
    23f2:	0f be       	out	0x3f, r0	; 63
    23f4:	0f 90       	pop	r0
    23f6:	1f 90       	pop	r1
    23f8:	18 95       	reti

000023fa <usart_init>:
  Variables: 
       ubrr: the baud-rate for the Serial Interface
  Returns  : -
  ------------------------------------------------------------------*/
void usart_init(unsigned int ubrr)
{
    23fa:	cf 93       	push	r28
    23fc:	df 93       	push	r29
    23fe:	cd b7       	in	r28, 0x3d	; 61
    2400:	de b7       	in	r29, 0x3e	; 62
    2402:	64 97       	sbiw	r28, 0x14	; 20
    2404:	0f b6       	in	r0, 0x3f	; 63
    2406:	f8 94       	cli
    2408:	de bf       	out	0x3e, r29	; 62
    240a:	0f be       	out	0x3f, r0	; 63
    240c:	cd bf       	out	0x3d, r28	; 61
   /*Set baud rate */
   UBRR0H  = (unsigned char)(ubrr>>8);
    240e:	90 93 c5 00 	sts	0x00C5, r25
   UBRR0L  = (unsigned char)ubrr;
    2412:	80 93 c4 00 	sts	0x00C4, r24

   // enable RX and TX and set interrupts on rx complete
   UCSR0B = (1 << RXEN0) | (1 << TXEN0) | (1 << RXCIE0);
    2416:	88 e9       	ldi	r24, 0x98	; 152
    2418:	80 93 c1 00 	sts	0x00C1, r24
   UCSR0A &= ~(1 << U2X0); // Disable double baud-rate (for Arduino UNO!).
    241c:	e0 ec       	ldi	r30, 0xC0	; 192
    241e:	f0 e0       	ldi	r31, 0x00	; 0
    2420:	80 81       	ld	r24, Z
    2422:	8d 7f       	andi	r24, 0xFD	; 253
    2424:	80 83       	st	Z, r24
   
   // 8-bit, 1 stop bit, no parity, asynchronous UART
   UCSR0C = (1 << UCSZ01) | (1 << UCSZ00) | (0 << USBS0)  |
    2426:	86 e0       	ldi	r24, 0x06	; 6
    2428:	80 93 c2 00 	sts	0x00C2, r24
  Returns  : struct containing the ring buffer
  ---------------------------------------------------------------------------*/
static inline struct ring_buffer ring_buffer_init(uint8_t *buffer, uint8_t size)
{
    struct ring_buffer ring;
    ring.write_offset = 0;
    242c:	18 8a       	std	Y+16, r1	; 0x10
    ring.read_offset  = 0;
    242e:	19 8a       	std	Y+17, r1	; 0x11
    ring.size         = size;
    2430:	8e e1       	ldi	r24, 0x1E	; 30
    2432:	8a 8b       	std	Y+18, r24	; 0x12
    ring.buffer       = buffer;
    2434:	8e ee       	ldi	r24, 0xEE	; 238
    2436:	94 e0       	ldi	r25, 0x04	; 4
    2438:	9c 8b       	std	Y+20, r25	; 0x14
    243a:	8b 8b       	std	Y+19, r24	; 0x13
    return ring;
    243c:	de 01       	movw	r26, r28
    243e:	16 96       	adiw	r26, 0x06	; 6
    2440:	fe 01       	movw	r30, r28
    2442:	70 96       	adiw	r30, 0x10	; 16
    2444:	85 e0       	ldi	r24, 0x05	; 5
    2446:	01 90       	ld	r0, Z+
    2448:	0d 92       	st	X+, r0
    244a:	81 50       	subi	r24, 0x01	; 1
    244c:	e1 f7       	brne	.-8      	; 0x2446 <usart_init+0x4c>
    244e:	de 01       	movw	r26, r28
    2450:	1b 96       	adiw	r26, 0x0b	; 11
    2452:	fe 01       	movw	r30, r28
    2454:	36 96       	adiw	r30, 0x06	; 6
    2456:	85 e0       	ldi	r24, 0x05	; 5
    2458:	01 90       	ld	r0, Z+
    245a:	0d 92       	st	X+, r0
    245c:	81 50       	subi	r24, 0x01	; 1
    245e:	e1 f7       	brne	.-8      	; 0x2458 <usart_init+0x5e>
   (0 << UPM01)  | (0 << UPM00)  | (0 << UMSEL01)| (0 << UMSEL00);
   
   // initialize the in and out buffer for the UART
   ring_buffer_out = ring_buffer_init(out_buffer, TX_BUF_SIZE);
    2460:	ac e1       	ldi	r26, 0x1C	; 28
    2462:	b5 e0       	ldi	r27, 0x05	; 5
    2464:	fe 01       	movw	r30, r28
    2466:	3b 96       	adiw	r30, 0x0b	; 11
    2468:	85 e0       	ldi	r24, 0x05	; 5
    246a:	01 90       	ld	r0, Z+
    246c:	0d 92       	st	X+, r0
    246e:	81 50       	subi	r24, 0x01	; 1
    2470:	e1 f7       	brne	.-8      	; 0x246a <usart_init+0x70>
  Returns  : struct containing the ring buffer
  ---------------------------------------------------------------------------*/
static inline struct ring_buffer ring_buffer_init(uint8_t *buffer, uint8_t size)
{
    struct ring_buffer ring;
    ring.write_offset = 0;
    2472:	1b 86       	std	Y+11, r1	; 0x0b
    ring.read_offset  = 0;
    2474:	1c 86       	std	Y+12, r1	; 0x0c
    ring.size         = size;
    2476:	8a e0       	ldi	r24, 0x0A	; 10
    2478:	8d 87       	std	Y+13, r24	; 0x0d
    ring.buffer       = buffer;
    247a:	8c e0       	ldi	r24, 0x0C	; 12
    247c:	95 e0       	ldi	r25, 0x05	; 5
    247e:	9f 87       	std	Y+15, r25	; 0x0f
    2480:	8e 87       	std	Y+14, r24	; 0x0e
    return ring;
    2482:	de 01       	movw	r26, r28
    2484:	11 96       	adiw	r26, 0x01	; 1
    2486:	fe 01       	movw	r30, r28
    2488:	3b 96       	adiw	r30, 0x0b	; 11
    248a:	85 e0       	ldi	r24, 0x05	; 5
    248c:	01 90       	ld	r0, Z+
    248e:	0d 92       	st	X+, r0
    2490:	81 50       	subi	r24, 0x01	; 1
    2492:	e1 f7       	brne	.-8      	; 0x248c <usart_init+0x92>
    2494:	de 01       	movw	r26, r28
    2496:	50 96       	adiw	r26, 0x10	; 16
    2498:	fe 01       	movw	r30, r28
    249a:	31 96       	adiw	r30, 0x01	; 1
    249c:	85 e0       	ldi	r24, 0x05	; 5
    249e:	01 90       	ld	r0, Z+
    24a0:	0d 92       	st	X+, r0
    24a2:	81 50       	subi	r24, 0x01	; 1
    24a4:	e1 f7       	brne	.-8      	; 0x249e <usart_init+0xa4>
   ring_buffer_in  = ring_buffer_init(in_buffer , RX_BUF_SIZE);
    24a6:	a7 e1       	ldi	r26, 0x17	; 23
    24a8:	b5 e0       	ldi	r27, 0x05	; 5
    24aa:	fe 01       	movw	r30, r28
    24ac:	70 96       	adiw	r30, 0x10	; 16
    24ae:	85 e0       	ldi	r24, 0x05	; 5
    24b0:	01 90       	ld	r0, Z+
    24b2:	0d 92       	st	X+, r0
    24b4:	81 50       	subi	r24, 0x01	; 1
    24b6:	e1 f7       	brne	.-8      	; 0x24b0 <usart_init+0xb6>
} // usart_init()
    24b8:	64 96       	adiw	r28, 0x14	; 20
    24ba:	0f b6       	in	r0, 0x3f	; 63
    24bc:	f8 94       	cli
    24be:	de bf       	out	0x3e, r29	; 62
    24c0:	0f be       	out	0x3f, r0	; 63
    24c2:	cd bf       	out	0x3d, r28	; 61
    24c4:	df 91       	pop	r29
    24c6:	cf 91       	pop	r28
    24c8:	08 95       	ret

000024ca <usart_putc>:
  Variables:
        ch : The character to write to serial port 0
  Returns  : -
  ------------------------------------------------------------------*/
void usart_putc(unsigned char data )
{
    24ca:	cf 92       	push	r12
    24cc:	df 92       	push	r13
    24ce:	ef 92       	push	r14
    24d0:	ff 92       	push	r15
    24d2:	0f 93       	push	r16
    24d4:	1f 93       	push	r17
    24d6:	cf 93       	push	r28
    24d8:	df 93       	push	r29
    24da:	c8 2e       	mov	r12, r24
  Variables: ring: pointer to a struct of type ring_buffer
  Returns  : true: buffer is full ; false: space is available in the ring buffer
  ---------------------------------------------------------------------------*/
static inline bool ring_buffer_is_full(const struct ring_buffer *ring)
{
    return (ring->read_offset == ring_buffer_get_next_write(ring));
    24dc:	cd e1       	ldi	r28, 0x1D	; 29
    24de:	d5 e0       	ldi	r29, 0x05	; 5
  Variables: ring: pointer to a struct of type ring_buffer
  Returns  : the next write offset in the ring buffer
  ---------------------------------------------------------------------------*/
static inline uint8_t ring_buffer_get_next_write(const struct ring_buffer *ring)
{
    return get_next(ring->write_offset, ring->size);
    24e0:	8e 01       	movw	r16, r28
    24e2:	01 50       	subi	r16, 0x01	; 1
    24e4:	10 40       	sbci	r17, 0x00	; 0
    24e6:	ee 24       	eor	r14, r14
    24e8:	ff 24       	eor	r15, r15
    24ea:	68 94       	set
    24ec:	e1 f8       	bld	r14, 1
    24ee:	e0 0e       	add	r14, r16
    24f0:	f1 1e       	adc	r15, r17
             max_offset: the highest allowed offset in the ring buffer
  Returns  : next offset or 0 if we are wrapping
  ---------------------------------------------------------------------------*/
static inline uint8_t get_next(uint8_t cur_offset, uint8_t max_offset)
{
   return ((cur_offset == max_offset-1) ? 0 : cur_offset + 1);
    24f2:	dd 24       	eor	r13, r13
	// At 19200 Baud, sending 1 byte takes a max. of 0.52 msec.
	while (ring_buffer_is_full(&ring_buffer_out)) delay_msec(1);
    24f4:	04 c0       	rjmp	.+8      	; 0x24fe <usart_putc+0x34>
    24f6:	81 e0       	ldi	r24, 0x01	; 1
    24f8:	90 e0       	ldi	r25, 0x00	; 0
    24fa:	0e 94 5d 0b 	call	0x16ba	; 0x16ba <delay_msec>
  Variables: ring: pointer to a struct of type ring_buffer
  Returns  : true: buffer is full ; false: space is available in the ring buffer
  ---------------------------------------------------------------------------*/
static inline bool ring_buffer_is_full(const struct ring_buffer *ring)
{
    return (ring->read_offset == ring_buffer_get_next_write(ring));
    24fe:	58 81       	ld	r21, Y
  Variables: ring: pointer to a struct of type ring_buffer
  Returns  : the next write offset in the ring buffer
  ---------------------------------------------------------------------------*/
static inline uint8_t ring_buffer_get_next_write(const struct ring_buffer *ring)
{
    return get_next(ring->write_offset, ring->size);
    2500:	f8 01       	movw	r30, r16
    2502:	40 81       	ld	r20, Z
             max_offset: the highest allowed offset in the ring buffer
  Returns  : next offset or 0 if we are wrapping
  ---------------------------------------------------------------------------*/
static inline uint8_t get_next(uint8_t cur_offset, uint8_t max_offset)
{
   return ((cur_offset == max_offset-1) ? 0 : cur_offset + 1);
    2504:	24 2f       	mov	r18, r20
    2506:	30 e0       	ldi	r19, 0x00	; 0
    2508:	f7 01       	movw	r30, r14
    250a:	80 81       	ld	r24, Z
    250c:	90 e0       	ldi	r25, 0x00	; 0
    250e:	01 97       	sbiw	r24, 0x01	; 1
    2510:	28 17       	cp	r18, r24
    2512:	39 07       	cpc	r19, r25
    2514:	11 f0       	breq	.+4      	; 0x251a <usart_putc+0x50>
    2516:	4f 5f       	subi	r20, 0xFF	; 255
    2518:	01 c0       	rjmp	.+2      	; 0x251c <usart_putc+0x52>
    251a:	4d 2d       	mov	r20, r13
    251c:	54 17       	cp	r21, r20
    251e:	59 f3       	breq	.-42     	; 0x24f6 <usart_putc+0x2c>
	cli(); // Disable interrupts to get exclusive access to ring_buffer_out
    2520:	f8 94       	cli
  Variables: ring: pointer to a struct of type ring_buffer
  Returns  : true: buffer is empty ; false: there is still data in the ring buffer
  ---------------------------------------------------------------------------*/
static inline bool ring_buffer_is_empty(const struct ring_buffer *ring)
{
    return (ring->read_offset == ring->write_offset);
    2522:	90 91 1d 05 	lds	r25, 0x051D
    2526:	80 91 1c 05 	lds	r24, 0x051C
	if (ring_buffer_is_empty(&ring_buffer_out))
    252a:	98 17       	cp	r25, r24
    252c:	29 f4       	brne	.+10     	; 0x2538 <usart_putc+0x6e>
	{
		UCSR0B |= (1 << UDRIE0); // First data in buffer, enable data ready interrupt
    252e:	e1 ec       	ldi	r30, 0xC1	; 193
    2530:	f0 e0       	ldi	r31, 0x00	; 0
    2532:	80 81       	ld	r24, Z
    2534:	80 62       	ori	r24, 0x20	; 32
    2536:	80 83       	st	Z, r24
  Returns  : -
  ---------------------------------------------------------------------------*/
static inline void ring_buffer_put(struct ring_buffer *ring, uint8_t data)
{
    //Assert(!ring_buffer_is_full(ring));   
    ring->buffer[ring->write_offset] = data;
    2538:	80 91 1c 05 	lds	r24, 0x051C
    253c:	e0 91 1f 05 	lds	r30, 0x051F
    2540:	f0 91 20 05 	lds	r31, 0x0520
    2544:	e8 0f       	add	r30, r24
    2546:	f1 1d       	adc	r31, r1
    2548:	c0 82       	st	Z, r12
  Variables: ring: pointer to a struct of type ring_buffer
  Returns  : the next write offset in the ring buffer
  ---------------------------------------------------------------------------*/
static inline uint8_t ring_buffer_get_next_write(const struct ring_buffer *ring)
{
    return get_next(ring->write_offset, ring->size);
    254a:	40 91 1c 05 	lds	r20, 0x051C
             max_offset: the highest allowed offset in the ring buffer
  Returns  : next offset or 0 if we are wrapping
  ---------------------------------------------------------------------------*/
static inline uint8_t get_next(uint8_t cur_offset, uint8_t max_offset)
{
   return ((cur_offset == max_offset-1) ? 0 : cur_offset + 1);
    254e:	24 2f       	mov	r18, r20
    2550:	30 e0       	ldi	r19, 0x00	; 0
    2552:	80 91 1e 05 	lds	r24, 0x051E
    2556:	90 e0       	ldi	r25, 0x00	; 0
    2558:	01 97       	sbiw	r24, 0x01	; 1
    255a:	28 17       	cp	r18, r24
    255c:	39 07       	cpc	r19, r25
    255e:	11 f0       	breq	.+4      	; 0x2564 <usart_putc+0x9a>
    2560:	4f 5f       	subi	r20, 0xFF	; 255
    2562:	01 c0       	rjmp	.+2      	; 0x2566 <usart_putc+0x9c>
    2564:	40 e0       	ldi	r20, 0x00	; 0
  ---------------------------------------------------------------------------*/
static inline void ring_buffer_put(struct ring_buffer *ring, uint8_t data)
{
    //Assert(!ring_buffer_is_full(ring));   
    ring->buffer[ring->write_offset] = data;
    ring->write_offset = ring_buffer_get_next_write(ring);
    2566:	40 93 1c 05 	sts	0x051C, r20
	} // if
	ring_buffer_put(&ring_buffer_out, data); // Put data in buffer
	sei(); // Re-enable interrupts
    256a:	78 94       	sei
} // usart_putc()
    256c:	df 91       	pop	r29
    256e:	cf 91       	pop	r28
    2570:	1f 91       	pop	r17
    2572:	0f 91       	pop	r16
    2574:	ff 90       	pop	r15
    2576:	ef 90       	pop	r14
    2578:	df 90       	pop	r13
    257a:	cf 90       	pop	r12
    257c:	08 95       	ret

0000257e <xputc>:
{                       /* Write Character to Serial Port */
  if (ch == '\n')       /* Check for LF */
  {                            
    //usart_putc('\r');  /* Output CR */
  }
  usart_putc(ch); /* Transmit Character */
    257e:	0e 94 65 12 	call	0x24ca	; 0x24ca <usart_putc>
} // xputc()
    2582:	08 95       	ret

00002584 <xputs>:
  Variables:
         s : The string to write to serial port 0
  Returns  : the number of characters written
  ------------------------------------------------------------------*/
void xputs(const char *s)
{
    2584:	cf 93       	push	r28
    2586:	df 93       	push	r29
    2588:	ec 01       	movw	r28, r24
	while (*s) xputc(*s++);
    258a:	88 81       	ld	r24, Y
    258c:	88 23       	and	r24, r24
    258e:	31 f0       	breq	.+12     	; 0x259c <xputs+0x18>
             the xputc() routine.
  Variables:
         s : The string to write to serial port 0
  Returns  : the number of characters written
  ------------------------------------------------------------------*/
void xputs(const char *s)
    2590:	21 96       	adiw	r28, 0x01	; 1
{
	while (*s) xputc(*s++);
    2592:	0e 94 bf 12 	call	0x257e	; 0x257e <xputc>
    2596:	89 91       	ld	r24, Y+
    2598:	88 23       	and	r24, r24
    259a:	d9 f7       	brne	.-10     	; 0x2592 <xputs+0xe>
} // xputs()
    259c:	df 91       	pop	r29
    259e:	cf 91       	pop	r28
    25a0:	08 95       	ret

000025a2 <usart_kbhit>:
  Variables: ring: pointer to a struct of type ring_buffer
  Returns  : true: buffer is empty ; false: there is still data in the ring buffer
  ---------------------------------------------------------------------------*/
static inline bool ring_buffer_is_empty(const struct ring_buffer *ring)
{
    return (ring->read_offset == ring->write_offset);
    25a2:	20 91 18 05 	lds	r18, 0x0518
    25a6:	90 91 17 05 	lds	r25, 0x0517
  Variables: -
  Returns  : 1 if a character is received, 0 otherwise
  ------------------------------------------------------------------*/
uint8_t usart_kbhit(void) /* returns true if character in receive buffer */
{
	return !ring_buffer_is_empty(&ring_buffer_in);
    25aa:	81 e0       	ldi	r24, 0x01	; 1
    25ac:	29 17       	cp	r18, r25
    25ae:	09 f4       	brne	.+2      	; 0x25b2 <usart_kbhit+0x10>
    25b0:	80 e0       	ldi	r24, 0x00	; 0
} // usart_kbhit()
    25b2:	08 95       	ret

000025b4 <usart_getc>:
  Returns  : next byte in buffer
  ---------------------------------------------------------------------------*/
static inline uint8_t ring_buffer_get(struct ring_buffer *ring)
{
    //Assert(!ring_buffer_is_empty(ring));
    uint8_t data = ring->buffer[ring->read_offset];
    25b4:	80 91 18 05 	lds	r24, 0x0518
    25b8:	e0 91 1a 05 	lds	r30, 0x051A
    25bc:	f0 91 1b 05 	lds	r31, 0x051B
    25c0:	e8 0f       	add	r30, r24
    25c2:	f1 1d       	adc	r31, r1
    25c4:	80 81       	ld	r24, Z
  Variables: ring: pointer to a struct of type ring_buffer
  Returns  : the next read offset in the ring buffer
  ---------------------------------------------------------------------------*/
static inline uint8_t ring_buffer_get_next_read(const struct ring_buffer *ring)
{
    return get_next(ring->read_offset, ring->size);
    25c6:	90 91 18 05 	lds	r25, 0x0518
             max_offset: the highest allowed offset in the ring buffer
  Returns  : next offset or 0 if we are wrapping
  ---------------------------------------------------------------------------*/
static inline uint8_t get_next(uint8_t cur_offset, uint8_t max_offset)
{
   return ((cur_offset == max_offset-1) ? 0 : cur_offset + 1);
    25ca:	49 2f       	mov	r20, r25
    25cc:	50 e0       	ldi	r21, 0x00	; 0
    25ce:	20 91 19 05 	lds	r18, 0x0519
    25d2:	30 e0       	ldi	r19, 0x00	; 0
    25d4:	21 50       	subi	r18, 0x01	; 1
    25d6:	30 40       	sbci	r19, 0x00	; 0
    25d8:	42 17       	cp	r20, r18
    25da:	53 07       	cpc	r21, r19
    25dc:	11 f0       	breq	.+4      	; 0x25e2 <usart_getc+0x2e>
    25de:	9f 5f       	subi	r25, 0xFF	; 255
    25e0:	01 c0       	rjmp	.+2      	; 0x25e4 <usart_getc+0x30>
    25e2:	90 e0       	ldi	r25, 0x00	; 0
  ---------------------------------------------------------------------------*/
static inline uint8_t ring_buffer_get(struct ring_buffer *ring)
{
    //Assert(!ring_buffer_is_empty(ring));
    uint8_t data = ring->buffer[ring->read_offset];
    ring->read_offset = ring_buffer_get_next_read(ring);
    25e4:	90 93 18 05 	sts	0x0518, r25
  Returns  : the character received
  ------------------------------------------------------------------*/
unsigned char usart_getc( void )
{
	return ring_buffer_get(&ring_buffer_in);
} // usart_getc()
    25e8:	08 95       	ret

000025ea <__subsf3>:
    25ea:	50 58       	subi	r21, 0x80	; 128

000025ec <__addsf3>:
    25ec:	bb 27       	eor	r27, r27
    25ee:	aa 27       	eor	r26, r26
    25f0:	0e d0       	rcall	.+28     	; 0x260e <__addsf3x>
    25f2:	4d c1       	rjmp	.+666    	; 0x288e <__fp_round>
    25f4:	3e d1       	rcall	.+636    	; 0x2872 <__fp_pscA>
    25f6:	30 f0       	brcs	.+12     	; 0x2604 <__addsf3+0x18>
    25f8:	43 d1       	rcall	.+646    	; 0x2880 <__fp_pscB>
    25fa:	20 f0       	brcs	.+8      	; 0x2604 <__addsf3+0x18>
    25fc:	31 f4       	brne	.+12     	; 0x260a <__addsf3+0x1e>
    25fe:	9f 3f       	cpi	r25, 0xFF	; 255
    2600:	11 f4       	brne	.+4      	; 0x2606 <__addsf3+0x1a>
    2602:	1e f4       	brtc	.+6      	; 0x260a <__addsf3+0x1e>
    2604:	33 c1       	rjmp	.+614    	; 0x286c <__fp_nan>
    2606:	0e f4       	brtc	.+2      	; 0x260a <__addsf3+0x1e>
    2608:	e0 95       	com	r30
    260a:	e7 fb       	bst	r30, 7
    260c:	29 c1       	rjmp	.+594    	; 0x2860 <__fp_inf>

0000260e <__addsf3x>:
    260e:	e9 2f       	mov	r30, r25
    2610:	4f d1       	rcall	.+670    	; 0x28b0 <__fp_split3>
    2612:	80 f3       	brcs	.-32     	; 0x25f4 <__addsf3+0x8>
    2614:	ba 17       	cp	r27, r26
    2616:	62 07       	cpc	r22, r18
    2618:	73 07       	cpc	r23, r19
    261a:	84 07       	cpc	r24, r20
    261c:	95 07       	cpc	r25, r21
    261e:	18 f0       	brcs	.+6      	; 0x2626 <__addsf3x+0x18>
    2620:	71 f4       	brne	.+28     	; 0x263e <__addsf3x+0x30>
    2622:	9e f5       	brtc	.+102    	; 0x268a <__addsf3x+0x7c>
    2624:	67 c1       	rjmp	.+718    	; 0x28f4 <__fp_zero>
    2626:	0e f4       	brtc	.+2      	; 0x262a <__addsf3x+0x1c>
    2628:	e0 95       	com	r30
    262a:	0b 2e       	mov	r0, r27
    262c:	ba 2f       	mov	r27, r26
    262e:	a0 2d       	mov	r26, r0
    2630:	0b 01       	movw	r0, r22
    2632:	b9 01       	movw	r22, r18
    2634:	90 01       	movw	r18, r0
    2636:	0c 01       	movw	r0, r24
    2638:	ca 01       	movw	r24, r20
    263a:	a0 01       	movw	r20, r0
    263c:	11 24       	eor	r1, r1
    263e:	ff 27       	eor	r31, r31
    2640:	59 1b       	sub	r21, r25
    2642:	99 f0       	breq	.+38     	; 0x266a <__addsf3x+0x5c>
    2644:	59 3f       	cpi	r21, 0xF9	; 249
    2646:	50 f4       	brcc	.+20     	; 0x265c <__addsf3x+0x4e>
    2648:	50 3e       	cpi	r21, 0xE0	; 224
    264a:	68 f1       	brcs	.+90     	; 0x26a6 <__addsf3x+0x98>
    264c:	1a 16       	cp	r1, r26
    264e:	f0 40       	sbci	r31, 0x00	; 0
    2650:	a2 2f       	mov	r26, r18
    2652:	23 2f       	mov	r18, r19
    2654:	34 2f       	mov	r19, r20
    2656:	44 27       	eor	r20, r20
    2658:	58 5f       	subi	r21, 0xF8	; 248
    265a:	f3 cf       	rjmp	.-26     	; 0x2642 <__addsf3x+0x34>
    265c:	46 95       	lsr	r20
    265e:	37 95       	ror	r19
    2660:	27 95       	ror	r18
    2662:	a7 95       	ror	r26
    2664:	f0 40       	sbci	r31, 0x00	; 0
    2666:	53 95       	inc	r21
    2668:	c9 f7       	brne	.-14     	; 0x265c <__addsf3x+0x4e>
    266a:	7e f4       	brtc	.+30     	; 0x268a <__addsf3x+0x7c>
    266c:	1f 16       	cp	r1, r31
    266e:	ba 0b       	sbc	r27, r26
    2670:	62 0b       	sbc	r22, r18
    2672:	73 0b       	sbc	r23, r19
    2674:	84 0b       	sbc	r24, r20
    2676:	ba f0       	brmi	.+46     	; 0x26a6 <__addsf3x+0x98>
    2678:	91 50       	subi	r25, 0x01	; 1
    267a:	a1 f0       	breq	.+40     	; 0x26a4 <__addsf3x+0x96>
    267c:	ff 0f       	add	r31, r31
    267e:	bb 1f       	adc	r27, r27
    2680:	66 1f       	adc	r22, r22
    2682:	77 1f       	adc	r23, r23
    2684:	88 1f       	adc	r24, r24
    2686:	c2 f7       	brpl	.-16     	; 0x2678 <__addsf3x+0x6a>
    2688:	0e c0       	rjmp	.+28     	; 0x26a6 <__addsf3x+0x98>
    268a:	ba 0f       	add	r27, r26
    268c:	62 1f       	adc	r22, r18
    268e:	73 1f       	adc	r23, r19
    2690:	84 1f       	adc	r24, r20
    2692:	48 f4       	brcc	.+18     	; 0x26a6 <__addsf3x+0x98>
    2694:	87 95       	ror	r24
    2696:	77 95       	ror	r23
    2698:	67 95       	ror	r22
    269a:	b7 95       	ror	r27
    269c:	f7 95       	ror	r31
    269e:	9e 3f       	cpi	r25, 0xFE	; 254
    26a0:	08 f0       	brcs	.+2      	; 0x26a4 <__addsf3x+0x96>
    26a2:	b3 cf       	rjmp	.-154    	; 0x260a <__addsf3+0x1e>
    26a4:	93 95       	inc	r25
    26a6:	88 0f       	add	r24, r24
    26a8:	08 f0       	brcs	.+2      	; 0x26ac <__addsf3x+0x9e>
    26aa:	99 27       	eor	r25, r25
    26ac:	ee 0f       	add	r30, r30
    26ae:	97 95       	ror	r25
    26b0:	87 95       	ror	r24
    26b2:	08 95       	ret

000026b4 <__divsf3>:
    26b4:	0c d0       	rcall	.+24     	; 0x26ce <__divsf3x>
    26b6:	eb c0       	rjmp	.+470    	; 0x288e <__fp_round>
    26b8:	e3 d0       	rcall	.+454    	; 0x2880 <__fp_pscB>
    26ba:	40 f0       	brcs	.+16     	; 0x26cc <__divsf3+0x18>
    26bc:	da d0       	rcall	.+436    	; 0x2872 <__fp_pscA>
    26be:	30 f0       	brcs	.+12     	; 0x26cc <__divsf3+0x18>
    26c0:	21 f4       	brne	.+8      	; 0x26ca <__divsf3+0x16>
    26c2:	5f 3f       	cpi	r21, 0xFF	; 255
    26c4:	19 f0       	breq	.+6      	; 0x26cc <__divsf3+0x18>
    26c6:	cc c0       	rjmp	.+408    	; 0x2860 <__fp_inf>
    26c8:	51 11       	cpse	r21, r1
    26ca:	15 c1       	rjmp	.+554    	; 0x28f6 <__fp_szero>
    26cc:	cf c0       	rjmp	.+414    	; 0x286c <__fp_nan>

000026ce <__divsf3x>:
    26ce:	f0 d0       	rcall	.+480    	; 0x28b0 <__fp_split3>
    26d0:	98 f3       	brcs	.-26     	; 0x26b8 <__divsf3+0x4>

000026d2 <__divsf3_pse>:
    26d2:	99 23       	and	r25, r25
    26d4:	c9 f3       	breq	.-14     	; 0x26c8 <__divsf3+0x14>
    26d6:	55 23       	and	r21, r21
    26d8:	b1 f3       	breq	.-20     	; 0x26c6 <__divsf3+0x12>
    26da:	95 1b       	sub	r25, r21
    26dc:	55 0b       	sbc	r21, r21
    26de:	bb 27       	eor	r27, r27
    26e0:	aa 27       	eor	r26, r26
    26e2:	62 17       	cp	r22, r18
    26e4:	73 07       	cpc	r23, r19
    26e6:	84 07       	cpc	r24, r20
    26e8:	38 f0       	brcs	.+14     	; 0x26f8 <__divsf3_pse+0x26>
    26ea:	9f 5f       	subi	r25, 0xFF	; 255
    26ec:	5f 4f       	sbci	r21, 0xFF	; 255
    26ee:	22 0f       	add	r18, r18
    26f0:	33 1f       	adc	r19, r19
    26f2:	44 1f       	adc	r20, r20
    26f4:	aa 1f       	adc	r26, r26
    26f6:	a9 f3       	breq	.-22     	; 0x26e2 <__divsf3_pse+0x10>
    26f8:	33 d0       	rcall	.+102    	; 0x2760 <__divsf3_pse+0x8e>
    26fa:	0e 2e       	mov	r0, r30
    26fc:	3a f0       	brmi	.+14     	; 0x270c <__divsf3_pse+0x3a>
    26fe:	e0 e8       	ldi	r30, 0x80	; 128
    2700:	30 d0       	rcall	.+96     	; 0x2762 <__divsf3_pse+0x90>
    2702:	91 50       	subi	r25, 0x01	; 1
    2704:	50 40       	sbci	r21, 0x00	; 0
    2706:	e6 95       	lsr	r30
    2708:	00 1c       	adc	r0, r0
    270a:	ca f7       	brpl	.-14     	; 0x26fe <__divsf3_pse+0x2c>
    270c:	29 d0       	rcall	.+82     	; 0x2760 <__divsf3_pse+0x8e>
    270e:	fe 2f       	mov	r31, r30
    2710:	27 d0       	rcall	.+78     	; 0x2760 <__divsf3_pse+0x8e>
    2712:	66 0f       	add	r22, r22
    2714:	77 1f       	adc	r23, r23
    2716:	88 1f       	adc	r24, r24
    2718:	bb 1f       	adc	r27, r27
    271a:	26 17       	cp	r18, r22
    271c:	37 07       	cpc	r19, r23
    271e:	48 07       	cpc	r20, r24
    2720:	ab 07       	cpc	r26, r27
    2722:	b0 e8       	ldi	r27, 0x80	; 128
    2724:	09 f0       	breq	.+2      	; 0x2728 <__divsf3_pse+0x56>
    2726:	bb 0b       	sbc	r27, r27
    2728:	80 2d       	mov	r24, r0
    272a:	bf 01       	movw	r22, r30
    272c:	ff 27       	eor	r31, r31
    272e:	93 58       	subi	r25, 0x83	; 131
    2730:	5f 4f       	sbci	r21, 0xFF	; 255
    2732:	2a f0       	brmi	.+10     	; 0x273e <__divsf3_pse+0x6c>
    2734:	9e 3f       	cpi	r25, 0xFE	; 254
    2736:	51 05       	cpc	r21, r1
    2738:	68 f0       	brcs	.+26     	; 0x2754 <__divsf3_pse+0x82>
    273a:	92 c0       	rjmp	.+292    	; 0x2860 <__fp_inf>
    273c:	dc c0       	rjmp	.+440    	; 0x28f6 <__fp_szero>
    273e:	5f 3f       	cpi	r21, 0xFF	; 255
    2740:	ec f3       	brlt	.-6      	; 0x273c <__divsf3_pse+0x6a>
    2742:	98 3e       	cpi	r25, 0xE8	; 232
    2744:	dc f3       	brlt	.-10     	; 0x273c <__divsf3_pse+0x6a>
    2746:	86 95       	lsr	r24
    2748:	77 95       	ror	r23
    274a:	67 95       	ror	r22
    274c:	b7 95       	ror	r27
    274e:	f7 95       	ror	r31
    2750:	9f 5f       	subi	r25, 0xFF	; 255
    2752:	c9 f7       	brne	.-14     	; 0x2746 <__divsf3_pse+0x74>
    2754:	88 0f       	add	r24, r24
    2756:	91 1d       	adc	r25, r1
    2758:	96 95       	lsr	r25
    275a:	87 95       	ror	r24
    275c:	97 f9       	bld	r25, 7
    275e:	08 95       	ret
    2760:	e1 e0       	ldi	r30, 0x01	; 1
    2762:	66 0f       	add	r22, r22
    2764:	77 1f       	adc	r23, r23
    2766:	88 1f       	adc	r24, r24
    2768:	bb 1f       	adc	r27, r27
    276a:	62 17       	cp	r22, r18
    276c:	73 07       	cpc	r23, r19
    276e:	84 07       	cpc	r24, r20
    2770:	ba 07       	cpc	r27, r26
    2772:	20 f0       	brcs	.+8      	; 0x277c <__divsf3_pse+0xaa>
    2774:	62 1b       	sub	r22, r18
    2776:	73 0b       	sbc	r23, r19
    2778:	84 0b       	sbc	r24, r20
    277a:	ba 0b       	sbc	r27, r26
    277c:	ee 1f       	adc	r30, r30
    277e:	88 f7       	brcc	.-30     	; 0x2762 <__divsf3_pse+0x90>
    2780:	e0 95       	com	r30
    2782:	08 95       	ret

00002784 <__fixsfsi>:
    2784:	04 d0       	rcall	.+8      	; 0x278e <__fixunssfsi>
    2786:	68 94       	set
    2788:	b1 11       	cpse	r27, r1
    278a:	b5 c0       	rjmp	.+362    	; 0x28f6 <__fp_szero>
    278c:	08 95       	ret

0000278e <__fixunssfsi>:
    278e:	98 d0       	rcall	.+304    	; 0x28c0 <__fp_splitA>
    2790:	88 f0       	brcs	.+34     	; 0x27b4 <__fixunssfsi+0x26>
    2792:	9f 57       	subi	r25, 0x7F	; 127
    2794:	90 f0       	brcs	.+36     	; 0x27ba <__fixunssfsi+0x2c>
    2796:	b9 2f       	mov	r27, r25
    2798:	99 27       	eor	r25, r25
    279a:	b7 51       	subi	r27, 0x17	; 23
    279c:	a0 f0       	brcs	.+40     	; 0x27c6 <__fixunssfsi+0x38>
    279e:	d1 f0       	breq	.+52     	; 0x27d4 <__fixunssfsi+0x46>
    27a0:	66 0f       	add	r22, r22
    27a2:	77 1f       	adc	r23, r23
    27a4:	88 1f       	adc	r24, r24
    27a6:	99 1f       	adc	r25, r25
    27a8:	1a f0       	brmi	.+6      	; 0x27b0 <__fixunssfsi+0x22>
    27aa:	ba 95       	dec	r27
    27ac:	c9 f7       	brne	.-14     	; 0x27a0 <__fixunssfsi+0x12>
    27ae:	12 c0       	rjmp	.+36     	; 0x27d4 <__fixunssfsi+0x46>
    27b0:	b1 30       	cpi	r27, 0x01	; 1
    27b2:	81 f0       	breq	.+32     	; 0x27d4 <__fixunssfsi+0x46>
    27b4:	9f d0       	rcall	.+318    	; 0x28f4 <__fp_zero>
    27b6:	b1 e0       	ldi	r27, 0x01	; 1
    27b8:	08 95       	ret
    27ba:	9c c0       	rjmp	.+312    	; 0x28f4 <__fp_zero>
    27bc:	67 2f       	mov	r22, r23
    27be:	78 2f       	mov	r23, r24
    27c0:	88 27       	eor	r24, r24
    27c2:	b8 5f       	subi	r27, 0xF8	; 248
    27c4:	39 f0       	breq	.+14     	; 0x27d4 <__fixunssfsi+0x46>
    27c6:	b9 3f       	cpi	r27, 0xF9	; 249
    27c8:	cc f3       	brlt	.-14     	; 0x27bc <__fixunssfsi+0x2e>
    27ca:	86 95       	lsr	r24
    27cc:	77 95       	ror	r23
    27ce:	67 95       	ror	r22
    27d0:	b3 95       	inc	r27
    27d2:	d9 f7       	brne	.-10     	; 0x27ca <__fixunssfsi+0x3c>
    27d4:	3e f4       	brtc	.+14     	; 0x27e4 <__fixunssfsi+0x56>
    27d6:	90 95       	com	r25
    27d8:	80 95       	com	r24
    27da:	70 95       	com	r23
    27dc:	61 95       	neg	r22
    27de:	7f 4f       	sbci	r23, 0xFF	; 255
    27e0:	8f 4f       	sbci	r24, 0xFF	; 255
    27e2:	9f 4f       	sbci	r25, 0xFF	; 255
    27e4:	08 95       	ret

000027e6 <__floatunsisf>:
    27e6:	e8 94       	clt
    27e8:	09 c0       	rjmp	.+18     	; 0x27fc <__floatsisf+0x12>

000027ea <__floatsisf>:
    27ea:	97 fb       	bst	r25, 7
    27ec:	3e f4       	brtc	.+14     	; 0x27fc <__floatsisf+0x12>
    27ee:	90 95       	com	r25
    27f0:	80 95       	com	r24
    27f2:	70 95       	com	r23
    27f4:	61 95       	neg	r22
    27f6:	7f 4f       	sbci	r23, 0xFF	; 255
    27f8:	8f 4f       	sbci	r24, 0xFF	; 255
    27fa:	9f 4f       	sbci	r25, 0xFF	; 255
    27fc:	99 23       	and	r25, r25
    27fe:	a9 f0       	breq	.+42     	; 0x282a <__floatsisf+0x40>
    2800:	f9 2f       	mov	r31, r25
    2802:	96 e9       	ldi	r25, 0x96	; 150
    2804:	bb 27       	eor	r27, r27
    2806:	93 95       	inc	r25
    2808:	f6 95       	lsr	r31
    280a:	87 95       	ror	r24
    280c:	77 95       	ror	r23
    280e:	67 95       	ror	r22
    2810:	b7 95       	ror	r27
    2812:	f1 11       	cpse	r31, r1
    2814:	f8 cf       	rjmp	.-16     	; 0x2806 <__floatsisf+0x1c>
    2816:	fa f4       	brpl	.+62     	; 0x2856 <__floatsisf+0x6c>
    2818:	bb 0f       	add	r27, r27
    281a:	11 f4       	brne	.+4      	; 0x2820 <__floatsisf+0x36>
    281c:	60 ff       	sbrs	r22, 0
    281e:	1b c0       	rjmp	.+54     	; 0x2856 <__floatsisf+0x6c>
    2820:	6f 5f       	subi	r22, 0xFF	; 255
    2822:	7f 4f       	sbci	r23, 0xFF	; 255
    2824:	8f 4f       	sbci	r24, 0xFF	; 255
    2826:	9f 4f       	sbci	r25, 0xFF	; 255
    2828:	16 c0       	rjmp	.+44     	; 0x2856 <__floatsisf+0x6c>
    282a:	88 23       	and	r24, r24
    282c:	11 f0       	breq	.+4      	; 0x2832 <__floatsisf+0x48>
    282e:	96 e9       	ldi	r25, 0x96	; 150
    2830:	11 c0       	rjmp	.+34     	; 0x2854 <__floatsisf+0x6a>
    2832:	77 23       	and	r23, r23
    2834:	21 f0       	breq	.+8      	; 0x283e <__floatsisf+0x54>
    2836:	9e e8       	ldi	r25, 0x8E	; 142
    2838:	87 2f       	mov	r24, r23
    283a:	76 2f       	mov	r23, r22
    283c:	05 c0       	rjmp	.+10     	; 0x2848 <__floatsisf+0x5e>
    283e:	66 23       	and	r22, r22
    2840:	71 f0       	breq	.+28     	; 0x285e <__floatsisf+0x74>
    2842:	96 e8       	ldi	r25, 0x86	; 134
    2844:	86 2f       	mov	r24, r22
    2846:	70 e0       	ldi	r23, 0x00	; 0
    2848:	60 e0       	ldi	r22, 0x00	; 0
    284a:	2a f0       	brmi	.+10     	; 0x2856 <__floatsisf+0x6c>
    284c:	9a 95       	dec	r25
    284e:	66 0f       	add	r22, r22
    2850:	77 1f       	adc	r23, r23
    2852:	88 1f       	adc	r24, r24
    2854:	da f7       	brpl	.-10     	; 0x284c <__floatsisf+0x62>
    2856:	88 0f       	add	r24, r24
    2858:	96 95       	lsr	r25
    285a:	87 95       	ror	r24
    285c:	97 f9       	bld	r25, 7
    285e:	08 95       	ret

00002860 <__fp_inf>:
    2860:	97 f9       	bld	r25, 7
    2862:	9f 67       	ori	r25, 0x7F	; 127
    2864:	80 e8       	ldi	r24, 0x80	; 128
    2866:	70 e0       	ldi	r23, 0x00	; 0
    2868:	60 e0       	ldi	r22, 0x00	; 0
    286a:	08 95       	ret

0000286c <__fp_nan>:
    286c:	9f ef       	ldi	r25, 0xFF	; 255
    286e:	80 ec       	ldi	r24, 0xC0	; 192
    2870:	08 95       	ret

00002872 <__fp_pscA>:
    2872:	00 24       	eor	r0, r0
    2874:	0a 94       	dec	r0
    2876:	16 16       	cp	r1, r22
    2878:	17 06       	cpc	r1, r23
    287a:	18 06       	cpc	r1, r24
    287c:	09 06       	cpc	r0, r25
    287e:	08 95       	ret

00002880 <__fp_pscB>:
    2880:	00 24       	eor	r0, r0
    2882:	0a 94       	dec	r0
    2884:	12 16       	cp	r1, r18
    2886:	13 06       	cpc	r1, r19
    2888:	14 06       	cpc	r1, r20
    288a:	05 06       	cpc	r0, r21
    288c:	08 95       	ret

0000288e <__fp_round>:
    288e:	09 2e       	mov	r0, r25
    2890:	03 94       	inc	r0
    2892:	00 0c       	add	r0, r0
    2894:	11 f4       	brne	.+4      	; 0x289a <__fp_round+0xc>
    2896:	88 23       	and	r24, r24
    2898:	52 f0       	brmi	.+20     	; 0x28ae <__fp_round+0x20>
    289a:	bb 0f       	add	r27, r27
    289c:	40 f4       	brcc	.+16     	; 0x28ae <__fp_round+0x20>
    289e:	bf 2b       	or	r27, r31
    28a0:	11 f4       	brne	.+4      	; 0x28a6 <__fp_round+0x18>
    28a2:	60 ff       	sbrs	r22, 0
    28a4:	04 c0       	rjmp	.+8      	; 0x28ae <__fp_round+0x20>
    28a6:	6f 5f       	subi	r22, 0xFF	; 255
    28a8:	7f 4f       	sbci	r23, 0xFF	; 255
    28aa:	8f 4f       	sbci	r24, 0xFF	; 255
    28ac:	9f 4f       	sbci	r25, 0xFF	; 255
    28ae:	08 95       	ret

000028b0 <__fp_split3>:
    28b0:	57 fd       	sbrc	r21, 7
    28b2:	90 58       	subi	r25, 0x80	; 128
    28b4:	44 0f       	add	r20, r20
    28b6:	55 1f       	adc	r21, r21
    28b8:	59 f0       	breq	.+22     	; 0x28d0 <__fp_splitA+0x10>
    28ba:	5f 3f       	cpi	r21, 0xFF	; 255
    28bc:	71 f0       	breq	.+28     	; 0x28da <__fp_splitA+0x1a>
    28be:	47 95       	ror	r20

000028c0 <__fp_splitA>:
    28c0:	88 0f       	add	r24, r24
    28c2:	97 fb       	bst	r25, 7
    28c4:	99 1f       	adc	r25, r25
    28c6:	61 f0       	breq	.+24     	; 0x28e0 <__fp_splitA+0x20>
    28c8:	9f 3f       	cpi	r25, 0xFF	; 255
    28ca:	79 f0       	breq	.+30     	; 0x28ea <__fp_splitA+0x2a>
    28cc:	87 95       	ror	r24
    28ce:	08 95       	ret
    28d0:	12 16       	cp	r1, r18
    28d2:	13 06       	cpc	r1, r19
    28d4:	14 06       	cpc	r1, r20
    28d6:	55 1f       	adc	r21, r21
    28d8:	f2 cf       	rjmp	.-28     	; 0x28be <__fp_split3+0xe>
    28da:	46 95       	lsr	r20
    28dc:	f1 df       	rcall	.-30     	; 0x28c0 <__fp_splitA>
    28de:	08 c0       	rjmp	.+16     	; 0x28f0 <__fp_splitA+0x30>
    28e0:	16 16       	cp	r1, r22
    28e2:	17 06       	cpc	r1, r23
    28e4:	18 06       	cpc	r1, r24
    28e6:	99 1f       	adc	r25, r25
    28e8:	f1 cf       	rjmp	.-30     	; 0x28cc <__fp_splitA+0xc>
    28ea:	86 95       	lsr	r24
    28ec:	71 05       	cpc	r23, r1
    28ee:	61 05       	cpc	r22, r1
    28f0:	08 94       	sec
    28f2:	08 95       	ret

000028f4 <__fp_zero>:
    28f4:	e8 94       	clt

000028f6 <__fp_szero>:
    28f6:	bb 27       	eor	r27, r27
    28f8:	66 27       	eor	r22, r22
    28fa:	77 27       	eor	r23, r23
    28fc:	cb 01       	movw	r24, r22
    28fe:	97 f9       	bld	r25, 7
    2900:	08 95       	ret

00002902 <__mulsf3>:
    2902:	0b d0       	rcall	.+22     	; 0x291a <__mulsf3x>
    2904:	c4 cf       	rjmp	.-120    	; 0x288e <__fp_round>
    2906:	b5 df       	rcall	.-150    	; 0x2872 <__fp_pscA>
    2908:	28 f0       	brcs	.+10     	; 0x2914 <__mulsf3+0x12>
    290a:	ba df       	rcall	.-140    	; 0x2880 <__fp_pscB>
    290c:	18 f0       	brcs	.+6      	; 0x2914 <__mulsf3+0x12>
    290e:	95 23       	and	r25, r21
    2910:	09 f0       	breq	.+2      	; 0x2914 <__mulsf3+0x12>
    2912:	a6 cf       	rjmp	.-180    	; 0x2860 <__fp_inf>
    2914:	ab cf       	rjmp	.-170    	; 0x286c <__fp_nan>
    2916:	11 24       	eor	r1, r1
    2918:	ee cf       	rjmp	.-36     	; 0x28f6 <__fp_szero>

0000291a <__mulsf3x>:
    291a:	ca df       	rcall	.-108    	; 0x28b0 <__fp_split3>
    291c:	a0 f3       	brcs	.-24     	; 0x2906 <__mulsf3+0x4>

0000291e <__mulsf3_pse>:
    291e:	95 9f       	mul	r25, r21
    2920:	d1 f3       	breq	.-12     	; 0x2916 <__mulsf3+0x14>
    2922:	95 0f       	add	r25, r21
    2924:	50 e0       	ldi	r21, 0x00	; 0
    2926:	55 1f       	adc	r21, r21
    2928:	62 9f       	mul	r22, r18
    292a:	f0 01       	movw	r30, r0
    292c:	72 9f       	mul	r23, r18
    292e:	bb 27       	eor	r27, r27
    2930:	f0 0d       	add	r31, r0
    2932:	b1 1d       	adc	r27, r1
    2934:	63 9f       	mul	r22, r19
    2936:	aa 27       	eor	r26, r26
    2938:	f0 0d       	add	r31, r0
    293a:	b1 1d       	adc	r27, r1
    293c:	aa 1f       	adc	r26, r26
    293e:	64 9f       	mul	r22, r20
    2940:	66 27       	eor	r22, r22
    2942:	b0 0d       	add	r27, r0
    2944:	a1 1d       	adc	r26, r1
    2946:	66 1f       	adc	r22, r22
    2948:	82 9f       	mul	r24, r18
    294a:	22 27       	eor	r18, r18
    294c:	b0 0d       	add	r27, r0
    294e:	a1 1d       	adc	r26, r1
    2950:	62 1f       	adc	r22, r18
    2952:	73 9f       	mul	r23, r19
    2954:	b0 0d       	add	r27, r0
    2956:	a1 1d       	adc	r26, r1
    2958:	62 1f       	adc	r22, r18
    295a:	83 9f       	mul	r24, r19
    295c:	a0 0d       	add	r26, r0
    295e:	61 1d       	adc	r22, r1
    2960:	22 1f       	adc	r18, r18
    2962:	74 9f       	mul	r23, r20
    2964:	33 27       	eor	r19, r19
    2966:	a0 0d       	add	r26, r0
    2968:	61 1d       	adc	r22, r1
    296a:	23 1f       	adc	r18, r19
    296c:	84 9f       	mul	r24, r20
    296e:	60 0d       	add	r22, r0
    2970:	21 1d       	adc	r18, r1
    2972:	82 2f       	mov	r24, r18
    2974:	76 2f       	mov	r23, r22
    2976:	6a 2f       	mov	r22, r26
    2978:	11 24       	eor	r1, r1
    297a:	9f 57       	subi	r25, 0x7F	; 127
    297c:	50 40       	sbci	r21, 0x00	; 0
    297e:	8a f0       	brmi	.+34     	; 0x29a2 <__mulsf3_pse+0x84>
    2980:	e1 f0       	breq	.+56     	; 0x29ba <__mulsf3_pse+0x9c>
    2982:	88 23       	and	r24, r24
    2984:	4a f0       	brmi	.+18     	; 0x2998 <__mulsf3_pse+0x7a>
    2986:	ee 0f       	add	r30, r30
    2988:	ff 1f       	adc	r31, r31
    298a:	bb 1f       	adc	r27, r27
    298c:	66 1f       	adc	r22, r22
    298e:	77 1f       	adc	r23, r23
    2990:	88 1f       	adc	r24, r24
    2992:	91 50       	subi	r25, 0x01	; 1
    2994:	50 40       	sbci	r21, 0x00	; 0
    2996:	a9 f7       	brne	.-22     	; 0x2982 <__mulsf3_pse+0x64>
    2998:	9e 3f       	cpi	r25, 0xFE	; 254
    299a:	51 05       	cpc	r21, r1
    299c:	70 f0       	brcs	.+28     	; 0x29ba <__mulsf3_pse+0x9c>
    299e:	60 cf       	rjmp	.-320    	; 0x2860 <__fp_inf>
    29a0:	aa cf       	rjmp	.-172    	; 0x28f6 <__fp_szero>
    29a2:	5f 3f       	cpi	r21, 0xFF	; 255
    29a4:	ec f3       	brlt	.-6      	; 0x29a0 <__mulsf3_pse+0x82>
    29a6:	98 3e       	cpi	r25, 0xE8	; 232
    29a8:	dc f3       	brlt	.-10     	; 0x29a0 <__mulsf3_pse+0x82>
    29aa:	86 95       	lsr	r24
    29ac:	77 95       	ror	r23
    29ae:	67 95       	ror	r22
    29b0:	b7 95       	ror	r27
    29b2:	f7 95       	ror	r31
    29b4:	e7 95       	ror	r30
    29b6:	9f 5f       	subi	r25, 0xFF	; 255
    29b8:	c1 f7       	brne	.-16     	; 0x29aa <__mulsf3_pse+0x8c>
    29ba:	fe 2b       	or	r31, r30
    29bc:	88 0f       	add	r24, r24
    29be:	91 1d       	adc	r25, r1
    29c0:	96 95       	lsr	r25
    29c2:	87 95       	ror	r24
    29c4:	97 f9       	bld	r25, 7
    29c6:	08 95       	ret

000029c8 <__mulsi3>:
    29c8:	62 9f       	mul	r22, r18
    29ca:	d0 01       	movw	r26, r0
    29cc:	73 9f       	mul	r23, r19
    29ce:	f0 01       	movw	r30, r0
    29d0:	82 9f       	mul	r24, r18
    29d2:	e0 0d       	add	r30, r0
    29d4:	f1 1d       	adc	r31, r1
    29d6:	64 9f       	mul	r22, r20
    29d8:	e0 0d       	add	r30, r0
    29da:	f1 1d       	adc	r31, r1
    29dc:	92 9f       	mul	r25, r18
    29de:	f0 0d       	add	r31, r0
    29e0:	83 9f       	mul	r24, r19
    29e2:	f0 0d       	add	r31, r0
    29e4:	74 9f       	mul	r23, r20
    29e6:	f0 0d       	add	r31, r0
    29e8:	65 9f       	mul	r22, r21
    29ea:	f0 0d       	add	r31, r0
    29ec:	99 27       	eor	r25, r25
    29ee:	72 9f       	mul	r23, r18
    29f0:	b0 0d       	add	r27, r0
    29f2:	e1 1d       	adc	r30, r1
    29f4:	f9 1f       	adc	r31, r25
    29f6:	63 9f       	mul	r22, r19
    29f8:	b0 0d       	add	r27, r0
    29fa:	e1 1d       	adc	r30, r1
    29fc:	f9 1f       	adc	r31, r25
    29fe:	bd 01       	movw	r22, r26
    2a00:	cf 01       	movw	r24, r30
    2a02:	11 24       	eor	r1, r1
    2a04:	08 95       	ret

00002a06 <__udivmodqi4>:
    2a06:	99 1b       	sub	r25, r25
    2a08:	79 e0       	ldi	r23, 0x09	; 9
    2a0a:	04 c0       	rjmp	.+8      	; 0x2a14 <__udivmodqi4_ep>

00002a0c <__udivmodqi4_loop>:
    2a0c:	99 1f       	adc	r25, r25
    2a0e:	96 17       	cp	r25, r22
    2a10:	08 f0       	brcs	.+2      	; 0x2a14 <__udivmodqi4_ep>
    2a12:	96 1b       	sub	r25, r22

00002a14 <__udivmodqi4_ep>:
    2a14:	88 1f       	adc	r24, r24
    2a16:	7a 95       	dec	r23
    2a18:	c9 f7       	brne	.-14     	; 0x2a0c <__udivmodqi4_loop>
    2a1a:	80 95       	com	r24
    2a1c:	08 95       	ret

00002a1e <__udivmodhi4>:
    2a1e:	aa 1b       	sub	r26, r26
    2a20:	bb 1b       	sub	r27, r27
    2a22:	51 e1       	ldi	r21, 0x11	; 17
    2a24:	07 c0       	rjmp	.+14     	; 0x2a34 <__udivmodhi4_ep>

00002a26 <__udivmodhi4_loop>:
    2a26:	aa 1f       	adc	r26, r26
    2a28:	bb 1f       	adc	r27, r27
    2a2a:	a6 17       	cp	r26, r22
    2a2c:	b7 07       	cpc	r27, r23
    2a2e:	10 f0       	brcs	.+4      	; 0x2a34 <__udivmodhi4_ep>
    2a30:	a6 1b       	sub	r26, r22
    2a32:	b7 0b       	sbc	r27, r23

00002a34 <__udivmodhi4_ep>:
    2a34:	88 1f       	adc	r24, r24
    2a36:	99 1f       	adc	r25, r25
    2a38:	5a 95       	dec	r21
    2a3a:	a9 f7       	brne	.-22     	; 0x2a26 <__udivmodhi4_loop>
    2a3c:	80 95       	com	r24
    2a3e:	90 95       	com	r25
    2a40:	bc 01       	movw	r22, r24
    2a42:	cd 01       	movw	r24, r26
    2a44:	08 95       	ret

00002a46 <__divmodhi4>:
    2a46:	97 fb       	bst	r25, 7
    2a48:	09 2e       	mov	r0, r25
    2a4a:	07 26       	eor	r0, r23
    2a4c:	0a d0       	rcall	.+20     	; 0x2a62 <__divmodhi4_neg1>
    2a4e:	77 fd       	sbrc	r23, 7
    2a50:	04 d0       	rcall	.+8      	; 0x2a5a <__divmodhi4_neg2>
    2a52:	e5 df       	rcall	.-54     	; 0x2a1e <__udivmodhi4>
    2a54:	06 d0       	rcall	.+12     	; 0x2a62 <__divmodhi4_neg1>
    2a56:	00 20       	and	r0, r0
    2a58:	1a f4       	brpl	.+6      	; 0x2a60 <__divmodhi4_exit>

00002a5a <__divmodhi4_neg2>:
    2a5a:	70 95       	com	r23
    2a5c:	61 95       	neg	r22
    2a5e:	7f 4f       	sbci	r23, 0xFF	; 255

00002a60 <__divmodhi4_exit>:
    2a60:	08 95       	ret

00002a62 <__divmodhi4_neg1>:
    2a62:	f6 f7       	brtc	.-4      	; 0x2a60 <__divmodhi4_exit>
    2a64:	90 95       	com	r25
    2a66:	81 95       	neg	r24
    2a68:	9f 4f       	sbci	r25, 0xFF	; 255
    2a6a:	08 95       	ret

00002a6c <__udivmodsi4>:
    2a6c:	a1 e2       	ldi	r26, 0x21	; 33
    2a6e:	1a 2e       	mov	r1, r26
    2a70:	aa 1b       	sub	r26, r26
    2a72:	bb 1b       	sub	r27, r27
    2a74:	fd 01       	movw	r30, r26
    2a76:	0d c0       	rjmp	.+26     	; 0x2a92 <__udivmodsi4_ep>

00002a78 <__udivmodsi4_loop>:
    2a78:	aa 1f       	adc	r26, r26
    2a7a:	bb 1f       	adc	r27, r27
    2a7c:	ee 1f       	adc	r30, r30
    2a7e:	ff 1f       	adc	r31, r31
    2a80:	a2 17       	cp	r26, r18
    2a82:	b3 07       	cpc	r27, r19
    2a84:	e4 07       	cpc	r30, r20
    2a86:	f5 07       	cpc	r31, r21
    2a88:	20 f0       	brcs	.+8      	; 0x2a92 <__udivmodsi4_ep>
    2a8a:	a2 1b       	sub	r26, r18
    2a8c:	b3 0b       	sbc	r27, r19
    2a8e:	e4 0b       	sbc	r30, r20
    2a90:	f5 0b       	sbc	r31, r21

00002a92 <__udivmodsi4_ep>:
    2a92:	66 1f       	adc	r22, r22
    2a94:	77 1f       	adc	r23, r23
    2a96:	88 1f       	adc	r24, r24
    2a98:	99 1f       	adc	r25, r25
    2a9a:	1a 94       	dec	r1
    2a9c:	69 f7       	brne	.-38     	; 0x2a78 <__udivmodsi4_loop>
    2a9e:	60 95       	com	r22
    2aa0:	70 95       	com	r23
    2aa2:	80 95       	com	r24
    2aa4:	90 95       	com	r25
    2aa6:	9b 01       	movw	r18, r22
    2aa8:	ac 01       	movw	r20, r24
    2aaa:	bd 01       	movw	r22, r26
    2aac:	cf 01       	movw	r24, r30
    2aae:	08 95       	ret

00002ab0 <__divmodsi4>:
    2ab0:	97 fb       	bst	r25, 7
    2ab2:	09 2e       	mov	r0, r25
    2ab4:	05 26       	eor	r0, r21
    2ab6:	0e d0       	rcall	.+28     	; 0x2ad4 <__divmodsi4_neg1>
    2ab8:	57 fd       	sbrc	r21, 7
    2aba:	04 d0       	rcall	.+8      	; 0x2ac4 <__divmodsi4_neg2>
    2abc:	d7 df       	rcall	.-82     	; 0x2a6c <__udivmodsi4>
    2abe:	0a d0       	rcall	.+20     	; 0x2ad4 <__divmodsi4_neg1>
    2ac0:	00 1c       	adc	r0, r0
    2ac2:	38 f4       	brcc	.+14     	; 0x2ad2 <__divmodsi4_exit>

00002ac4 <__divmodsi4_neg2>:
    2ac4:	50 95       	com	r21
    2ac6:	40 95       	com	r20
    2ac8:	30 95       	com	r19
    2aca:	21 95       	neg	r18
    2acc:	3f 4f       	sbci	r19, 0xFF	; 255
    2ace:	4f 4f       	sbci	r20, 0xFF	; 255
    2ad0:	5f 4f       	sbci	r21, 0xFF	; 255

00002ad2 <__divmodsi4_exit>:
    2ad2:	08 95       	ret

00002ad4 <__divmodsi4_neg1>:
    2ad4:	f6 f7       	brtc	.-4      	; 0x2ad2 <__divmodsi4_exit>
    2ad6:	90 95       	com	r25
    2ad8:	80 95       	com	r24
    2ada:	70 95       	com	r23
    2adc:	61 95       	neg	r22
    2ade:	7f 4f       	sbci	r23, 0xFF	; 255
    2ae0:	8f 4f       	sbci	r24, 0xFF	; 255
    2ae2:	9f 4f       	sbci	r25, 0xFF	; 255
    2ae4:	08 95       	ret

00002ae6 <atoi>:
    2ae6:	fc 01       	movw	r30, r24
    2ae8:	88 27       	eor	r24, r24
    2aea:	99 27       	eor	r25, r25
    2aec:	e8 94       	clt
    2aee:	21 91       	ld	r18, Z+
    2af0:	20 32       	cpi	r18, 0x20	; 32
    2af2:	e9 f3       	breq	.-6      	; 0x2aee <atoi+0x8>
    2af4:	29 30       	cpi	r18, 0x09	; 9
    2af6:	10 f0       	brcs	.+4      	; 0x2afc <atoi+0x16>
    2af8:	2e 30       	cpi	r18, 0x0E	; 14
    2afa:	c8 f3       	brcs	.-14     	; 0x2aee <atoi+0x8>
    2afc:	2b 32       	cpi	r18, 0x2B	; 43
    2afe:	41 f0       	breq	.+16     	; 0x2b10 <atoi+0x2a>
    2b00:	2d 32       	cpi	r18, 0x2D	; 45
    2b02:	39 f4       	brne	.+14     	; 0x2b12 <atoi+0x2c>
    2b04:	68 94       	set
    2b06:	04 c0       	rjmp	.+8      	; 0x2b10 <atoi+0x2a>
    2b08:	0e 94 dd 15 	call	0x2bba	; 0x2bba <__mulhi_const_10>
    2b0c:	82 0f       	add	r24, r18
    2b0e:	91 1d       	adc	r25, r1
    2b10:	21 91       	ld	r18, Z+
    2b12:	20 53       	subi	r18, 0x30	; 48
    2b14:	2a 30       	cpi	r18, 0x0A	; 10
    2b16:	c0 f3       	brcs	.-16     	; 0x2b08 <atoi+0x22>
    2b18:	1e f4       	brtc	.+6      	; 0x2b20 <atoi+0x3a>
    2b1a:	90 95       	com	r25
    2b1c:	81 95       	neg	r24
    2b1e:	9f 4f       	sbci	r25, 0xFF	; 255
    2b20:	08 95       	ret

00002b22 <tolower>:
    2b22:	91 11       	cpse	r25, r1
    2b24:	08 95       	ret
    2b26:	81 54       	subi	r24, 0x41	; 65
    2b28:	8a 51       	subi	r24, 0x1A	; 26
    2b2a:	08 f4       	brcc	.+2      	; 0x2b2e <tolower+0xc>
    2b2c:	80 5e       	subi	r24, 0xE0	; 224
    2b2e:	85 5a       	subi	r24, 0xA5	; 165
    2b30:	08 95       	ret

00002b32 <strtok>:
    2b32:	4b e1       	ldi	r20, 0x1B	; 27
    2b34:	53 e0       	ldi	r21, 0x03	; 3
    2b36:	0e 94 b6 15 	call	0x2b6c	; 0x2b6c <strtok_r>
    2b3a:	08 95       	ret

00002b3c <strcmp>:
    2b3c:	fb 01       	movw	r30, r22
    2b3e:	dc 01       	movw	r26, r24
    2b40:	8d 91       	ld	r24, X+
    2b42:	01 90       	ld	r0, Z+
    2b44:	80 19       	sub	r24, r0
    2b46:	01 10       	cpse	r0, r1
    2b48:	d9 f3       	breq	.-10     	; 0x2b40 <strcmp+0x4>
    2b4a:	99 0b       	sbc	r25, r25
    2b4c:	08 95       	ret

00002b4e <strncpy>:
    2b4e:	fb 01       	movw	r30, r22
    2b50:	dc 01       	movw	r26, r24
    2b52:	41 50       	subi	r20, 0x01	; 1
    2b54:	50 40       	sbci	r21, 0x00	; 0
    2b56:	48 f0       	brcs	.+18     	; 0x2b6a <strncpy+0x1c>
    2b58:	01 90       	ld	r0, Z+
    2b5a:	0d 92       	st	X+, r0
    2b5c:	00 20       	and	r0, r0
    2b5e:	c9 f7       	brne	.-14     	; 0x2b52 <strncpy+0x4>
    2b60:	01 c0       	rjmp	.+2      	; 0x2b64 <strncpy+0x16>
    2b62:	1d 92       	st	X+, r1
    2b64:	41 50       	subi	r20, 0x01	; 1
    2b66:	50 40       	sbci	r21, 0x00	; 0
    2b68:	e0 f7       	brcc	.-8      	; 0x2b62 <strncpy+0x14>
    2b6a:	08 95       	ret

00002b6c <strtok_r>:
    2b6c:	fa 01       	movw	r30, r20
    2b6e:	a1 91       	ld	r26, Z+
    2b70:	b0 81       	ld	r27, Z
    2b72:	00 97       	sbiw	r24, 0x00	; 0
    2b74:	19 f4       	brne	.+6      	; 0x2b7c <strtok_r+0x10>
    2b76:	10 97       	sbiw	r26, 0x00	; 0
    2b78:	e1 f0       	breq	.+56     	; 0x2bb2 <strtok_r+0x46>
    2b7a:	cd 01       	movw	r24, r26
    2b7c:	dc 01       	movw	r26, r24
    2b7e:	cd 01       	movw	r24, r26
    2b80:	0d 90       	ld	r0, X+
    2b82:	00 20       	and	r0, r0
    2b84:	11 f4       	brne	.+4      	; 0x2b8a <strtok_r+0x1e>
    2b86:	c0 01       	movw	r24, r0
    2b88:	13 c0       	rjmp	.+38     	; 0x2bb0 <strtok_r+0x44>
    2b8a:	fb 01       	movw	r30, r22
    2b8c:	21 91       	ld	r18, Z+
    2b8e:	22 23       	and	r18, r18
    2b90:	19 f0       	breq	.+6      	; 0x2b98 <strtok_r+0x2c>
    2b92:	20 15       	cp	r18, r0
    2b94:	d9 f7       	brne	.-10     	; 0x2b8c <strtok_r+0x20>
    2b96:	f3 cf       	rjmp	.-26     	; 0x2b7e <strtok_r+0x12>
    2b98:	fb 01       	movw	r30, r22
    2b9a:	21 91       	ld	r18, Z+
    2b9c:	20 15       	cp	r18, r0
    2b9e:	19 f4       	brne	.+6      	; 0x2ba6 <strtok_r+0x3a>
    2ba0:	1e 92       	st	-X, r1
    2ba2:	11 96       	adiw	r26, 0x01	; 1
    2ba4:	06 c0       	rjmp	.+12     	; 0x2bb2 <strtok_r+0x46>
    2ba6:	22 23       	and	r18, r18
    2ba8:	c1 f7       	brne	.-16     	; 0x2b9a <strtok_r+0x2e>
    2baa:	0d 90       	ld	r0, X+
    2bac:	00 20       	and	r0, r0
    2bae:	a1 f7       	brne	.-24     	; 0x2b98 <strtok_r+0x2c>
    2bb0:	d0 01       	movw	r26, r0
    2bb2:	fa 01       	movw	r30, r20
    2bb4:	a1 93       	st	Z+, r26
    2bb6:	b0 83       	st	Z, r27
    2bb8:	08 95       	ret

00002bba <__mulhi_const_10>:
    2bba:	7a e0       	ldi	r23, 0x0A	; 10
    2bbc:	97 9f       	mul	r25, r23
    2bbe:	90 2d       	mov	r25, r0
    2bc0:	87 9f       	mul	r24, r23
    2bc2:	80 2d       	mov	r24, r0
    2bc4:	91 0d       	add	r25, r1
    2bc6:	11 24       	eor	r1, r1
    2bc8:	08 95       	ret

00002bca <sprintf>:
    2bca:	ae e0       	ldi	r26, 0x0E	; 14
    2bcc:	b0 e0       	ldi	r27, 0x00	; 0
    2bce:	eb ee       	ldi	r30, 0xEB	; 235
    2bd0:	f5 e1       	ldi	r31, 0x15	; 21
    2bd2:	0c 94 93 18 	jmp	0x3126	; 0x3126 <__prologue_saves__+0x1c>
    2bd6:	0d 89       	ldd	r16, Y+21	; 0x15
    2bd8:	1e 89       	ldd	r17, Y+22	; 0x16
    2bda:	86 e0       	ldi	r24, 0x06	; 6
    2bdc:	8c 83       	std	Y+4, r24	; 0x04
    2bde:	1a 83       	std	Y+2, r17	; 0x02
    2be0:	09 83       	std	Y+1, r16	; 0x01
    2be2:	8f ef       	ldi	r24, 0xFF	; 255
    2be4:	9f e7       	ldi	r25, 0x7F	; 127
    2be6:	9e 83       	std	Y+6, r25	; 0x06
    2be8:	8d 83       	std	Y+5, r24	; 0x05
    2bea:	ae 01       	movw	r20, r28
    2bec:	47 5e       	subi	r20, 0xE7	; 231
    2bee:	5f 4f       	sbci	r21, 0xFF	; 255
    2bf0:	ce 01       	movw	r24, r28
    2bf2:	01 96       	adiw	r24, 0x01	; 1
    2bf4:	6f 89       	ldd	r22, Y+23	; 0x17
    2bf6:	78 8d       	ldd	r23, Y+24	; 0x18
    2bf8:	0e 94 07 16 	call	0x2c0e	; 0x2c0e <vfprintf>
    2bfc:	ef 81       	ldd	r30, Y+7	; 0x07
    2bfe:	f8 85       	ldd	r31, Y+8	; 0x08
    2c00:	e0 0f       	add	r30, r16
    2c02:	f1 1f       	adc	r31, r17
    2c04:	10 82       	st	Z, r1
    2c06:	2e 96       	adiw	r28, 0x0e	; 14
    2c08:	e4 e0       	ldi	r30, 0x04	; 4
    2c0a:	0c 94 af 18 	jmp	0x315e	; 0x315e <__epilogue_restores__+0x1c>

00002c0e <vfprintf>:
    2c0e:	ad e0       	ldi	r26, 0x0D	; 13
    2c10:	b0 e0       	ldi	r27, 0x00	; 0
    2c12:	ed e0       	ldi	r30, 0x0D	; 13
    2c14:	f6 e1       	ldi	r31, 0x16	; 22
    2c16:	0c 94 85 18 	jmp	0x310a	; 0x310a <__prologue_saves__>
    2c1a:	3c 01       	movw	r6, r24
    2c1c:	7d 87       	std	Y+13, r23	; 0x0d
    2c1e:	6c 87       	std	Y+12, r22	; 0x0c
    2c20:	5a 01       	movw	r10, r20
    2c22:	fc 01       	movw	r30, r24
    2c24:	17 82       	std	Z+7, r1	; 0x07
    2c26:	16 82       	std	Z+6, r1	; 0x06
    2c28:	83 81       	ldd	r24, Z+3	; 0x03
    2c2a:	81 ff       	sbrs	r24, 1
    2c2c:	c8 c1       	rjmp	.+912    	; 0x2fbe <vfprintf+0x3b0>
    2c2e:	2e 01       	movw	r4, r28
    2c30:	08 94       	sec
    2c32:	41 1c       	adc	r4, r1
    2c34:	51 1c       	adc	r5, r1
    2c36:	f3 01       	movw	r30, r6
    2c38:	93 81       	ldd	r25, Z+3	; 0x03
    2c3a:	ec 85       	ldd	r30, Y+12	; 0x0c
    2c3c:	fd 85       	ldd	r31, Y+13	; 0x0d
    2c3e:	93 fd       	sbrc	r25, 3
    2c40:	85 91       	lpm	r24, Z+
    2c42:	93 ff       	sbrs	r25, 3
    2c44:	81 91       	ld	r24, Z+
    2c46:	fd 87       	std	Y+13, r31	; 0x0d
    2c48:	ec 87       	std	Y+12, r30	; 0x0c
    2c4a:	88 23       	and	r24, r24
    2c4c:	09 f4       	brne	.+2      	; 0x2c50 <vfprintf+0x42>
    2c4e:	b3 c1       	rjmp	.+870    	; 0x2fb6 <vfprintf+0x3a8>
    2c50:	85 32       	cpi	r24, 0x25	; 37
    2c52:	41 f4       	brne	.+16     	; 0x2c64 <vfprintf+0x56>
    2c54:	93 fd       	sbrc	r25, 3
    2c56:	85 91       	lpm	r24, Z+
    2c58:	93 ff       	sbrs	r25, 3
    2c5a:	81 91       	ld	r24, Z+
    2c5c:	fd 87       	std	Y+13, r31	; 0x0d
    2c5e:	ec 87       	std	Y+12, r30	; 0x0c
    2c60:	85 32       	cpi	r24, 0x25	; 37
    2c62:	29 f4       	brne	.+10     	; 0x2c6e <vfprintf+0x60>
    2c64:	90 e0       	ldi	r25, 0x00	; 0
    2c66:	b3 01       	movw	r22, r6
    2c68:	0e 94 fb 17 	call	0x2ff6	; 0x2ff6 <fputc>
    2c6c:	e4 cf       	rjmp	.-56     	; 0x2c36 <vfprintf+0x28>
    2c6e:	ff 24       	eor	r15, r15
    2c70:	ee 24       	eor	r14, r14
    2c72:	10 e0       	ldi	r17, 0x00	; 0
    2c74:	10 32       	cpi	r17, 0x20	; 32
    2c76:	b0 f4       	brcc	.+44     	; 0x2ca4 <vfprintf+0x96>
    2c78:	8b 32       	cpi	r24, 0x2B	; 43
    2c7a:	69 f0       	breq	.+26     	; 0x2c96 <vfprintf+0x88>
    2c7c:	8c 32       	cpi	r24, 0x2C	; 44
    2c7e:	28 f4       	brcc	.+10     	; 0x2c8a <vfprintf+0x7c>
    2c80:	80 32       	cpi	r24, 0x20	; 32
    2c82:	51 f0       	breq	.+20     	; 0x2c98 <vfprintf+0x8a>
    2c84:	83 32       	cpi	r24, 0x23	; 35
    2c86:	71 f4       	brne	.+28     	; 0x2ca4 <vfprintf+0x96>
    2c88:	0b c0       	rjmp	.+22     	; 0x2ca0 <vfprintf+0x92>
    2c8a:	8d 32       	cpi	r24, 0x2D	; 45
    2c8c:	39 f0       	breq	.+14     	; 0x2c9c <vfprintf+0x8e>
    2c8e:	80 33       	cpi	r24, 0x30	; 48
    2c90:	49 f4       	brne	.+18     	; 0x2ca4 <vfprintf+0x96>
    2c92:	11 60       	ori	r17, 0x01	; 1
    2c94:	2c c0       	rjmp	.+88     	; 0x2cee <vfprintf+0xe0>
    2c96:	12 60       	ori	r17, 0x02	; 2
    2c98:	14 60       	ori	r17, 0x04	; 4
    2c9a:	29 c0       	rjmp	.+82     	; 0x2cee <vfprintf+0xe0>
    2c9c:	18 60       	ori	r17, 0x08	; 8
    2c9e:	27 c0       	rjmp	.+78     	; 0x2cee <vfprintf+0xe0>
    2ca0:	10 61       	ori	r17, 0x10	; 16
    2ca2:	25 c0       	rjmp	.+74     	; 0x2cee <vfprintf+0xe0>
    2ca4:	17 fd       	sbrc	r17, 7
    2ca6:	2e c0       	rjmp	.+92     	; 0x2d04 <vfprintf+0xf6>
    2ca8:	28 2f       	mov	r18, r24
    2caa:	20 53       	subi	r18, 0x30	; 48
    2cac:	2a 30       	cpi	r18, 0x0A	; 10
    2cae:	98 f4       	brcc	.+38     	; 0x2cd6 <vfprintf+0xc8>
    2cb0:	16 ff       	sbrs	r17, 6
    2cb2:	08 c0       	rjmp	.+16     	; 0x2cc4 <vfprintf+0xb6>
    2cb4:	8f 2d       	mov	r24, r15
    2cb6:	88 0f       	add	r24, r24
    2cb8:	f8 2e       	mov	r15, r24
    2cba:	ff 0c       	add	r15, r15
    2cbc:	ff 0c       	add	r15, r15
    2cbe:	f8 0e       	add	r15, r24
    2cc0:	f2 0e       	add	r15, r18
    2cc2:	15 c0       	rjmp	.+42     	; 0x2cee <vfprintf+0xe0>
    2cc4:	8e 2d       	mov	r24, r14
    2cc6:	88 0f       	add	r24, r24
    2cc8:	e8 2e       	mov	r14, r24
    2cca:	ee 0c       	add	r14, r14
    2ccc:	ee 0c       	add	r14, r14
    2cce:	e8 0e       	add	r14, r24
    2cd0:	e2 0e       	add	r14, r18
    2cd2:	10 62       	ori	r17, 0x20	; 32
    2cd4:	0c c0       	rjmp	.+24     	; 0x2cee <vfprintf+0xe0>
    2cd6:	8e 32       	cpi	r24, 0x2E	; 46
    2cd8:	21 f4       	brne	.+8      	; 0x2ce2 <vfprintf+0xd4>
    2cda:	16 fd       	sbrc	r17, 6
    2cdc:	6c c1       	rjmp	.+728    	; 0x2fb6 <vfprintf+0x3a8>
    2cde:	10 64       	ori	r17, 0x40	; 64
    2ce0:	06 c0       	rjmp	.+12     	; 0x2cee <vfprintf+0xe0>
    2ce2:	8c 36       	cpi	r24, 0x6C	; 108
    2ce4:	11 f4       	brne	.+4      	; 0x2cea <vfprintf+0xdc>
    2ce6:	10 68       	ori	r17, 0x80	; 128
    2ce8:	02 c0       	rjmp	.+4      	; 0x2cee <vfprintf+0xe0>
    2cea:	88 36       	cpi	r24, 0x68	; 104
    2cec:	59 f4       	brne	.+22     	; 0x2d04 <vfprintf+0xf6>
    2cee:	ec 85       	ldd	r30, Y+12	; 0x0c
    2cf0:	fd 85       	ldd	r31, Y+13	; 0x0d
    2cf2:	93 fd       	sbrc	r25, 3
    2cf4:	85 91       	lpm	r24, Z+
    2cf6:	93 ff       	sbrs	r25, 3
    2cf8:	81 91       	ld	r24, Z+
    2cfa:	fd 87       	std	Y+13, r31	; 0x0d
    2cfc:	ec 87       	std	Y+12, r30	; 0x0c
    2cfe:	88 23       	and	r24, r24
    2d00:	09 f0       	breq	.+2      	; 0x2d04 <vfprintf+0xf6>
    2d02:	b8 cf       	rjmp	.-144    	; 0x2c74 <vfprintf+0x66>
    2d04:	98 2f       	mov	r25, r24
    2d06:	95 54       	subi	r25, 0x45	; 69
    2d08:	93 30       	cpi	r25, 0x03	; 3
    2d0a:	18 f0       	brcs	.+6      	; 0x2d12 <vfprintf+0x104>
    2d0c:	90 52       	subi	r25, 0x20	; 32
    2d0e:	93 30       	cpi	r25, 0x03	; 3
    2d10:	38 f4       	brcc	.+14     	; 0x2d20 <vfprintf+0x112>
    2d12:	24 e0       	ldi	r18, 0x04	; 4
    2d14:	30 e0       	ldi	r19, 0x00	; 0
    2d16:	a2 0e       	add	r10, r18
    2d18:	b3 1e       	adc	r11, r19
    2d1a:	3f e3       	ldi	r19, 0x3F	; 63
    2d1c:	39 83       	std	Y+1, r19	; 0x01
    2d1e:	0f c0       	rjmp	.+30     	; 0x2d3e <vfprintf+0x130>
    2d20:	83 36       	cpi	r24, 0x63	; 99
    2d22:	31 f0       	breq	.+12     	; 0x2d30 <vfprintf+0x122>
    2d24:	83 37       	cpi	r24, 0x73	; 115
    2d26:	81 f0       	breq	.+32     	; 0x2d48 <vfprintf+0x13a>
    2d28:	83 35       	cpi	r24, 0x53	; 83
    2d2a:	09 f0       	breq	.+2      	; 0x2d2e <vfprintf+0x120>
    2d2c:	5a c0       	rjmp	.+180    	; 0x2de2 <vfprintf+0x1d4>
    2d2e:	22 c0       	rjmp	.+68     	; 0x2d74 <vfprintf+0x166>
    2d30:	f5 01       	movw	r30, r10
    2d32:	80 81       	ld	r24, Z
    2d34:	89 83       	std	Y+1, r24	; 0x01
    2d36:	22 e0       	ldi	r18, 0x02	; 2
    2d38:	30 e0       	ldi	r19, 0x00	; 0
    2d3a:	a2 0e       	add	r10, r18
    2d3c:	b3 1e       	adc	r11, r19
    2d3e:	21 e0       	ldi	r18, 0x01	; 1
    2d40:	c2 2e       	mov	r12, r18
    2d42:	d1 2c       	mov	r13, r1
    2d44:	42 01       	movw	r8, r4
    2d46:	14 c0       	rjmp	.+40     	; 0x2d70 <vfprintf+0x162>
    2d48:	92 e0       	ldi	r25, 0x02	; 2
    2d4a:	29 2e       	mov	r2, r25
    2d4c:	31 2c       	mov	r3, r1
    2d4e:	2a 0c       	add	r2, r10
    2d50:	3b 1c       	adc	r3, r11
    2d52:	f5 01       	movw	r30, r10
    2d54:	80 80       	ld	r8, Z
    2d56:	91 80       	ldd	r9, Z+1	; 0x01
    2d58:	16 ff       	sbrs	r17, 6
    2d5a:	03 c0       	rjmp	.+6      	; 0x2d62 <vfprintf+0x154>
    2d5c:	6f 2d       	mov	r22, r15
    2d5e:	70 e0       	ldi	r23, 0x00	; 0
    2d60:	02 c0       	rjmp	.+4      	; 0x2d66 <vfprintf+0x158>
    2d62:	6f ef       	ldi	r22, 0xFF	; 255
    2d64:	7f ef       	ldi	r23, 0xFF	; 255
    2d66:	c4 01       	movw	r24, r8
    2d68:	0e 94 f0 17 	call	0x2fe0	; 0x2fe0 <strnlen>
    2d6c:	6c 01       	movw	r12, r24
    2d6e:	51 01       	movw	r10, r2
    2d70:	1f 77       	andi	r17, 0x7F	; 127
    2d72:	15 c0       	rjmp	.+42     	; 0x2d9e <vfprintf+0x190>
    2d74:	82 e0       	ldi	r24, 0x02	; 2
    2d76:	28 2e       	mov	r2, r24
    2d78:	31 2c       	mov	r3, r1
    2d7a:	2a 0c       	add	r2, r10
    2d7c:	3b 1c       	adc	r3, r11
    2d7e:	f5 01       	movw	r30, r10
    2d80:	80 80       	ld	r8, Z
    2d82:	91 80       	ldd	r9, Z+1	; 0x01
    2d84:	16 ff       	sbrs	r17, 6
    2d86:	03 c0       	rjmp	.+6      	; 0x2d8e <vfprintf+0x180>
    2d88:	6f 2d       	mov	r22, r15
    2d8a:	70 e0       	ldi	r23, 0x00	; 0
    2d8c:	02 c0       	rjmp	.+4      	; 0x2d92 <vfprintf+0x184>
    2d8e:	6f ef       	ldi	r22, 0xFF	; 255
    2d90:	7f ef       	ldi	r23, 0xFF	; 255
    2d92:	c4 01       	movw	r24, r8
    2d94:	0e 94 e5 17 	call	0x2fca	; 0x2fca <strnlen_P>
    2d98:	6c 01       	movw	r12, r24
    2d9a:	10 68       	ori	r17, 0x80	; 128
    2d9c:	51 01       	movw	r10, r2
    2d9e:	13 fd       	sbrc	r17, 3
    2da0:	1c c0       	rjmp	.+56     	; 0x2dda <vfprintf+0x1cc>
    2da2:	06 c0       	rjmp	.+12     	; 0x2db0 <vfprintf+0x1a2>
    2da4:	80 e2       	ldi	r24, 0x20	; 32
    2da6:	90 e0       	ldi	r25, 0x00	; 0
    2da8:	b3 01       	movw	r22, r6
    2daa:	0e 94 fb 17 	call	0x2ff6	; 0x2ff6 <fputc>
    2dae:	ea 94       	dec	r14
    2db0:	8e 2d       	mov	r24, r14
    2db2:	90 e0       	ldi	r25, 0x00	; 0
    2db4:	c8 16       	cp	r12, r24
    2db6:	d9 06       	cpc	r13, r25
    2db8:	a8 f3       	brcs	.-22     	; 0x2da4 <vfprintf+0x196>
    2dba:	0f c0       	rjmp	.+30     	; 0x2dda <vfprintf+0x1cc>
    2dbc:	f4 01       	movw	r30, r8
    2dbe:	17 fd       	sbrc	r17, 7
    2dc0:	85 91       	lpm	r24, Z+
    2dc2:	17 ff       	sbrs	r17, 7
    2dc4:	81 91       	ld	r24, Z+
    2dc6:	4f 01       	movw	r8, r30
    2dc8:	90 e0       	ldi	r25, 0x00	; 0
    2dca:	b3 01       	movw	r22, r6
    2dcc:	0e 94 fb 17 	call	0x2ff6	; 0x2ff6 <fputc>
    2dd0:	e1 10       	cpse	r14, r1
    2dd2:	ea 94       	dec	r14
    2dd4:	08 94       	sec
    2dd6:	c1 08       	sbc	r12, r1
    2dd8:	d1 08       	sbc	r13, r1
    2dda:	c1 14       	cp	r12, r1
    2ddc:	d1 04       	cpc	r13, r1
    2dde:	71 f7       	brne	.-36     	; 0x2dbc <vfprintf+0x1ae>
    2de0:	e7 c0       	rjmp	.+462    	; 0x2fb0 <vfprintf+0x3a2>
    2de2:	84 36       	cpi	r24, 0x64	; 100
    2de4:	11 f0       	breq	.+4      	; 0x2dea <vfprintf+0x1dc>
    2de6:	89 36       	cpi	r24, 0x69	; 105
    2de8:	51 f5       	brne	.+84     	; 0x2e3e <vfprintf+0x230>
    2dea:	f5 01       	movw	r30, r10
    2dec:	17 ff       	sbrs	r17, 7
    2dee:	07 c0       	rjmp	.+14     	; 0x2dfe <vfprintf+0x1f0>
    2df0:	80 81       	ld	r24, Z
    2df2:	91 81       	ldd	r25, Z+1	; 0x01
    2df4:	a2 81       	ldd	r26, Z+2	; 0x02
    2df6:	b3 81       	ldd	r27, Z+3	; 0x03
    2df8:	24 e0       	ldi	r18, 0x04	; 4
    2dfa:	30 e0       	ldi	r19, 0x00	; 0
    2dfc:	08 c0       	rjmp	.+16     	; 0x2e0e <vfprintf+0x200>
    2dfe:	80 81       	ld	r24, Z
    2e00:	91 81       	ldd	r25, Z+1	; 0x01
    2e02:	aa 27       	eor	r26, r26
    2e04:	97 fd       	sbrc	r25, 7
    2e06:	a0 95       	com	r26
    2e08:	ba 2f       	mov	r27, r26
    2e0a:	22 e0       	ldi	r18, 0x02	; 2
    2e0c:	30 e0       	ldi	r19, 0x00	; 0
    2e0e:	a2 0e       	add	r10, r18
    2e10:	b3 1e       	adc	r11, r19
    2e12:	01 2f       	mov	r16, r17
    2e14:	0f 76       	andi	r16, 0x6F	; 111
    2e16:	b7 ff       	sbrs	r27, 7
    2e18:	08 c0       	rjmp	.+16     	; 0x2e2a <vfprintf+0x21c>
    2e1a:	b0 95       	com	r27
    2e1c:	a0 95       	com	r26
    2e1e:	90 95       	com	r25
    2e20:	81 95       	neg	r24
    2e22:	9f 4f       	sbci	r25, 0xFF	; 255
    2e24:	af 4f       	sbci	r26, 0xFF	; 255
    2e26:	bf 4f       	sbci	r27, 0xFF	; 255
    2e28:	00 68       	ori	r16, 0x80	; 128
    2e2a:	bc 01       	movw	r22, r24
    2e2c:	cd 01       	movw	r24, r26
    2e2e:	a2 01       	movw	r20, r4
    2e30:	2a e0       	ldi	r18, 0x0A	; 10
    2e32:	30 e0       	ldi	r19, 0x00	; 0
    2e34:	0e 94 27 18 	call	0x304e	; 0x304e <__ultoa_invert>
    2e38:	d8 2e       	mov	r13, r24
    2e3a:	d4 18       	sub	r13, r4
    2e3c:	3f c0       	rjmp	.+126    	; 0x2ebc <vfprintf+0x2ae>
    2e3e:	85 37       	cpi	r24, 0x75	; 117
    2e40:	21 f4       	brne	.+8      	; 0x2e4a <vfprintf+0x23c>
    2e42:	1f 7e       	andi	r17, 0xEF	; 239
    2e44:	2a e0       	ldi	r18, 0x0A	; 10
    2e46:	30 e0       	ldi	r19, 0x00	; 0
    2e48:	20 c0       	rjmp	.+64     	; 0x2e8a <vfprintf+0x27c>
    2e4a:	19 7f       	andi	r17, 0xF9	; 249
    2e4c:	8f 36       	cpi	r24, 0x6F	; 111
    2e4e:	a9 f0       	breq	.+42     	; 0x2e7a <vfprintf+0x26c>
    2e50:	80 37       	cpi	r24, 0x70	; 112
    2e52:	20 f4       	brcc	.+8      	; 0x2e5c <vfprintf+0x24e>
    2e54:	88 35       	cpi	r24, 0x58	; 88
    2e56:	09 f0       	breq	.+2      	; 0x2e5a <vfprintf+0x24c>
    2e58:	ae c0       	rjmp	.+348    	; 0x2fb6 <vfprintf+0x3a8>
    2e5a:	0b c0       	rjmp	.+22     	; 0x2e72 <vfprintf+0x264>
    2e5c:	80 37       	cpi	r24, 0x70	; 112
    2e5e:	21 f0       	breq	.+8      	; 0x2e68 <vfprintf+0x25a>
    2e60:	88 37       	cpi	r24, 0x78	; 120
    2e62:	09 f0       	breq	.+2      	; 0x2e66 <vfprintf+0x258>
    2e64:	a8 c0       	rjmp	.+336    	; 0x2fb6 <vfprintf+0x3a8>
    2e66:	01 c0       	rjmp	.+2      	; 0x2e6a <vfprintf+0x25c>
    2e68:	10 61       	ori	r17, 0x10	; 16
    2e6a:	14 ff       	sbrs	r17, 4
    2e6c:	09 c0       	rjmp	.+18     	; 0x2e80 <vfprintf+0x272>
    2e6e:	14 60       	ori	r17, 0x04	; 4
    2e70:	07 c0       	rjmp	.+14     	; 0x2e80 <vfprintf+0x272>
    2e72:	14 ff       	sbrs	r17, 4
    2e74:	08 c0       	rjmp	.+16     	; 0x2e86 <vfprintf+0x278>
    2e76:	16 60       	ori	r17, 0x06	; 6
    2e78:	06 c0       	rjmp	.+12     	; 0x2e86 <vfprintf+0x278>
    2e7a:	28 e0       	ldi	r18, 0x08	; 8
    2e7c:	30 e0       	ldi	r19, 0x00	; 0
    2e7e:	05 c0       	rjmp	.+10     	; 0x2e8a <vfprintf+0x27c>
    2e80:	20 e1       	ldi	r18, 0x10	; 16
    2e82:	30 e0       	ldi	r19, 0x00	; 0
    2e84:	02 c0       	rjmp	.+4      	; 0x2e8a <vfprintf+0x27c>
    2e86:	20 e1       	ldi	r18, 0x10	; 16
    2e88:	32 e0       	ldi	r19, 0x02	; 2
    2e8a:	f5 01       	movw	r30, r10
    2e8c:	17 ff       	sbrs	r17, 7
    2e8e:	07 c0       	rjmp	.+14     	; 0x2e9e <vfprintf+0x290>
    2e90:	60 81       	ld	r22, Z
    2e92:	71 81       	ldd	r23, Z+1	; 0x01
    2e94:	82 81       	ldd	r24, Z+2	; 0x02
    2e96:	93 81       	ldd	r25, Z+3	; 0x03
    2e98:	44 e0       	ldi	r20, 0x04	; 4
    2e9a:	50 e0       	ldi	r21, 0x00	; 0
    2e9c:	06 c0       	rjmp	.+12     	; 0x2eaa <vfprintf+0x29c>
    2e9e:	60 81       	ld	r22, Z
    2ea0:	71 81       	ldd	r23, Z+1	; 0x01
    2ea2:	80 e0       	ldi	r24, 0x00	; 0
    2ea4:	90 e0       	ldi	r25, 0x00	; 0
    2ea6:	42 e0       	ldi	r20, 0x02	; 2
    2ea8:	50 e0       	ldi	r21, 0x00	; 0
    2eaa:	a4 0e       	add	r10, r20
    2eac:	b5 1e       	adc	r11, r21
    2eae:	a2 01       	movw	r20, r4
    2eb0:	0e 94 27 18 	call	0x304e	; 0x304e <__ultoa_invert>
    2eb4:	d8 2e       	mov	r13, r24
    2eb6:	d4 18       	sub	r13, r4
    2eb8:	01 2f       	mov	r16, r17
    2eba:	0f 77       	andi	r16, 0x7F	; 127
    2ebc:	06 ff       	sbrs	r16, 6
    2ebe:	09 c0       	rjmp	.+18     	; 0x2ed2 <vfprintf+0x2c4>
    2ec0:	0e 7f       	andi	r16, 0xFE	; 254
    2ec2:	df 14       	cp	r13, r15
    2ec4:	30 f4       	brcc	.+12     	; 0x2ed2 <vfprintf+0x2c4>
    2ec6:	04 ff       	sbrs	r16, 4
    2ec8:	06 c0       	rjmp	.+12     	; 0x2ed6 <vfprintf+0x2c8>
    2eca:	02 fd       	sbrc	r16, 2
    2ecc:	04 c0       	rjmp	.+8      	; 0x2ed6 <vfprintf+0x2c8>
    2ece:	0f 7e       	andi	r16, 0xEF	; 239
    2ed0:	02 c0       	rjmp	.+4      	; 0x2ed6 <vfprintf+0x2c8>
    2ed2:	1d 2d       	mov	r17, r13
    2ed4:	01 c0       	rjmp	.+2      	; 0x2ed8 <vfprintf+0x2ca>
    2ed6:	1f 2d       	mov	r17, r15
    2ed8:	80 2f       	mov	r24, r16
    2eda:	90 e0       	ldi	r25, 0x00	; 0
    2edc:	04 ff       	sbrs	r16, 4
    2ede:	0c c0       	rjmp	.+24     	; 0x2ef8 <vfprintf+0x2ea>
    2ee0:	fe 01       	movw	r30, r28
    2ee2:	ed 0d       	add	r30, r13
    2ee4:	f1 1d       	adc	r31, r1
    2ee6:	20 81       	ld	r18, Z
    2ee8:	20 33       	cpi	r18, 0x30	; 48
    2eea:	11 f4       	brne	.+4      	; 0x2ef0 <vfprintf+0x2e2>
    2eec:	09 7e       	andi	r16, 0xE9	; 233
    2eee:	09 c0       	rjmp	.+18     	; 0x2f02 <vfprintf+0x2f4>
    2ef0:	02 ff       	sbrs	r16, 2
    2ef2:	06 c0       	rjmp	.+12     	; 0x2f00 <vfprintf+0x2f2>
    2ef4:	1e 5f       	subi	r17, 0xFE	; 254
    2ef6:	05 c0       	rjmp	.+10     	; 0x2f02 <vfprintf+0x2f4>
    2ef8:	86 78       	andi	r24, 0x86	; 134
    2efa:	90 70       	andi	r25, 0x00	; 0
    2efc:	00 97       	sbiw	r24, 0x00	; 0
    2efe:	09 f0       	breq	.+2      	; 0x2f02 <vfprintf+0x2f4>
    2f00:	1f 5f       	subi	r17, 0xFF	; 255
    2f02:	80 2e       	mov	r8, r16
    2f04:	99 24       	eor	r9, r9
    2f06:	03 fd       	sbrc	r16, 3
    2f08:	12 c0       	rjmp	.+36     	; 0x2f2e <vfprintf+0x320>
    2f0a:	00 ff       	sbrs	r16, 0
    2f0c:	0d c0       	rjmp	.+26     	; 0x2f28 <vfprintf+0x31a>
    2f0e:	fd 2c       	mov	r15, r13
    2f10:	1e 15       	cp	r17, r14
    2f12:	50 f4       	brcc	.+20     	; 0x2f28 <vfprintf+0x31a>
    2f14:	fe 0c       	add	r15, r14
    2f16:	f1 1a       	sub	r15, r17
    2f18:	1e 2d       	mov	r17, r14
    2f1a:	06 c0       	rjmp	.+12     	; 0x2f28 <vfprintf+0x31a>
    2f1c:	80 e2       	ldi	r24, 0x20	; 32
    2f1e:	90 e0       	ldi	r25, 0x00	; 0
    2f20:	b3 01       	movw	r22, r6
    2f22:	0e 94 fb 17 	call	0x2ff6	; 0x2ff6 <fputc>
    2f26:	1f 5f       	subi	r17, 0xFF	; 255
    2f28:	1e 15       	cp	r17, r14
    2f2a:	c0 f3       	brcs	.-16     	; 0x2f1c <vfprintf+0x30e>
    2f2c:	04 c0       	rjmp	.+8      	; 0x2f36 <vfprintf+0x328>
    2f2e:	1e 15       	cp	r17, r14
    2f30:	10 f4       	brcc	.+4      	; 0x2f36 <vfprintf+0x328>
    2f32:	e1 1a       	sub	r14, r17
    2f34:	01 c0       	rjmp	.+2      	; 0x2f38 <vfprintf+0x32a>
    2f36:	ee 24       	eor	r14, r14
    2f38:	84 fe       	sbrs	r8, 4
    2f3a:	0f c0       	rjmp	.+30     	; 0x2f5a <vfprintf+0x34c>
    2f3c:	80 e3       	ldi	r24, 0x30	; 48
    2f3e:	90 e0       	ldi	r25, 0x00	; 0
    2f40:	b3 01       	movw	r22, r6
    2f42:	0e 94 fb 17 	call	0x2ff6	; 0x2ff6 <fputc>
    2f46:	82 fe       	sbrs	r8, 2
    2f48:	1f c0       	rjmp	.+62     	; 0x2f88 <vfprintf+0x37a>
    2f4a:	81 fe       	sbrs	r8, 1
    2f4c:	03 c0       	rjmp	.+6      	; 0x2f54 <vfprintf+0x346>
    2f4e:	88 e5       	ldi	r24, 0x58	; 88
    2f50:	90 e0       	ldi	r25, 0x00	; 0
    2f52:	10 c0       	rjmp	.+32     	; 0x2f74 <vfprintf+0x366>
    2f54:	88 e7       	ldi	r24, 0x78	; 120
    2f56:	90 e0       	ldi	r25, 0x00	; 0
    2f58:	0d c0       	rjmp	.+26     	; 0x2f74 <vfprintf+0x366>
    2f5a:	c4 01       	movw	r24, r8
    2f5c:	86 78       	andi	r24, 0x86	; 134
    2f5e:	90 70       	andi	r25, 0x00	; 0
    2f60:	00 97       	sbiw	r24, 0x00	; 0
    2f62:	91 f0       	breq	.+36     	; 0x2f88 <vfprintf+0x37a>
    2f64:	81 fc       	sbrc	r8, 1
    2f66:	02 c0       	rjmp	.+4      	; 0x2f6c <vfprintf+0x35e>
    2f68:	80 e2       	ldi	r24, 0x20	; 32
    2f6a:	01 c0       	rjmp	.+2      	; 0x2f6e <vfprintf+0x360>
    2f6c:	8b e2       	ldi	r24, 0x2B	; 43
    2f6e:	07 fd       	sbrc	r16, 7
    2f70:	8d e2       	ldi	r24, 0x2D	; 45
    2f72:	90 e0       	ldi	r25, 0x00	; 0
    2f74:	b3 01       	movw	r22, r6
    2f76:	0e 94 fb 17 	call	0x2ff6	; 0x2ff6 <fputc>
    2f7a:	06 c0       	rjmp	.+12     	; 0x2f88 <vfprintf+0x37a>
    2f7c:	80 e3       	ldi	r24, 0x30	; 48
    2f7e:	90 e0       	ldi	r25, 0x00	; 0
    2f80:	b3 01       	movw	r22, r6
    2f82:	0e 94 fb 17 	call	0x2ff6	; 0x2ff6 <fputc>
    2f86:	fa 94       	dec	r15
    2f88:	df 14       	cp	r13, r15
    2f8a:	c0 f3       	brcs	.-16     	; 0x2f7c <vfprintf+0x36e>
    2f8c:	da 94       	dec	r13
    2f8e:	f2 01       	movw	r30, r4
    2f90:	ed 0d       	add	r30, r13
    2f92:	f1 1d       	adc	r31, r1
    2f94:	80 81       	ld	r24, Z
    2f96:	90 e0       	ldi	r25, 0x00	; 0
    2f98:	b3 01       	movw	r22, r6
    2f9a:	0e 94 fb 17 	call	0x2ff6	; 0x2ff6 <fputc>
    2f9e:	dd 20       	and	r13, r13
    2fa0:	a9 f7       	brne	.-22     	; 0x2f8c <vfprintf+0x37e>
    2fa2:	06 c0       	rjmp	.+12     	; 0x2fb0 <vfprintf+0x3a2>
    2fa4:	80 e2       	ldi	r24, 0x20	; 32
    2fa6:	90 e0       	ldi	r25, 0x00	; 0
    2fa8:	b3 01       	movw	r22, r6
    2faa:	0e 94 fb 17 	call	0x2ff6	; 0x2ff6 <fputc>
    2fae:	ea 94       	dec	r14
    2fb0:	ee 20       	and	r14, r14
    2fb2:	c1 f7       	brne	.-16     	; 0x2fa4 <vfprintf+0x396>
    2fb4:	40 ce       	rjmp	.-896    	; 0x2c36 <vfprintf+0x28>
    2fb6:	f3 01       	movw	r30, r6
    2fb8:	86 81       	ldd	r24, Z+6	; 0x06
    2fba:	97 81       	ldd	r25, Z+7	; 0x07
    2fbc:	02 c0       	rjmp	.+4      	; 0x2fc2 <vfprintf+0x3b4>
    2fbe:	8f ef       	ldi	r24, 0xFF	; 255
    2fc0:	9f ef       	ldi	r25, 0xFF	; 255
    2fc2:	2d 96       	adiw	r28, 0x0d	; 13
    2fc4:	e2 e1       	ldi	r30, 0x12	; 18
    2fc6:	0c 94 a1 18 	jmp	0x3142	; 0x3142 <__epilogue_restores__>

00002fca <strnlen_P>:
    2fca:	fc 01       	movw	r30, r24
    2fcc:	05 90       	lpm	r0, Z+
    2fce:	61 50       	subi	r22, 0x01	; 1
    2fd0:	70 40       	sbci	r23, 0x00	; 0
    2fd2:	01 10       	cpse	r0, r1
    2fd4:	d8 f7       	brcc	.-10     	; 0x2fcc <strnlen_P+0x2>
    2fd6:	80 95       	com	r24
    2fd8:	90 95       	com	r25
    2fda:	8e 0f       	add	r24, r30
    2fdc:	9f 1f       	adc	r25, r31
    2fde:	08 95       	ret

00002fe0 <strnlen>:
    2fe0:	fc 01       	movw	r30, r24
    2fe2:	61 50       	subi	r22, 0x01	; 1
    2fe4:	70 40       	sbci	r23, 0x00	; 0
    2fe6:	01 90       	ld	r0, Z+
    2fe8:	01 10       	cpse	r0, r1
    2fea:	d8 f7       	brcc	.-10     	; 0x2fe2 <strnlen+0x2>
    2fec:	80 95       	com	r24
    2fee:	90 95       	com	r25
    2ff0:	8e 0f       	add	r24, r30
    2ff2:	9f 1f       	adc	r25, r31
    2ff4:	08 95       	ret

00002ff6 <fputc>:
    2ff6:	0f 93       	push	r16
    2ff8:	1f 93       	push	r17
    2ffa:	cf 93       	push	r28
    2ffc:	df 93       	push	r29
    2ffe:	8c 01       	movw	r16, r24
    3000:	eb 01       	movw	r28, r22
    3002:	8b 81       	ldd	r24, Y+3	; 0x03
    3004:	81 ff       	sbrs	r24, 1
    3006:	1b c0       	rjmp	.+54     	; 0x303e <fputc+0x48>
    3008:	82 ff       	sbrs	r24, 2
    300a:	0d c0       	rjmp	.+26     	; 0x3026 <fputc+0x30>
    300c:	2e 81       	ldd	r18, Y+6	; 0x06
    300e:	3f 81       	ldd	r19, Y+7	; 0x07
    3010:	8c 81       	ldd	r24, Y+4	; 0x04
    3012:	9d 81       	ldd	r25, Y+5	; 0x05
    3014:	28 17       	cp	r18, r24
    3016:	39 07       	cpc	r19, r25
    3018:	64 f4       	brge	.+24     	; 0x3032 <fputc+0x3c>
    301a:	e8 81       	ld	r30, Y
    301c:	f9 81       	ldd	r31, Y+1	; 0x01
    301e:	01 93       	st	Z+, r16
    3020:	f9 83       	std	Y+1, r31	; 0x01
    3022:	e8 83       	st	Y, r30
    3024:	06 c0       	rjmp	.+12     	; 0x3032 <fputc+0x3c>
    3026:	e8 85       	ldd	r30, Y+8	; 0x08
    3028:	f9 85       	ldd	r31, Y+9	; 0x09
    302a:	80 2f       	mov	r24, r16
    302c:	09 95       	icall
    302e:	00 97       	sbiw	r24, 0x00	; 0
    3030:	31 f4       	brne	.+12     	; 0x303e <fputc+0x48>
    3032:	8e 81       	ldd	r24, Y+6	; 0x06
    3034:	9f 81       	ldd	r25, Y+7	; 0x07
    3036:	01 96       	adiw	r24, 0x01	; 1
    3038:	9f 83       	std	Y+7, r25	; 0x07
    303a:	8e 83       	std	Y+6, r24	; 0x06
    303c:	02 c0       	rjmp	.+4      	; 0x3042 <fputc+0x4c>
    303e:	0f ef       	ldi	r16, 0xFF	; 255
    3040:	1f ef       	ldi	r17, 0xFF	; 255
    3042:	c8 01       	movw	r24, r16
    3044:	df 91       	pop	r29
    3046:	cf 91       	pop	r28
    3048:	1f 91       	pop	r17
    304a:	0f 91       	pop	r16
    304c:	08 95       	ret

0000304e <__ultoa_invert>:
    304e:	fa 01       	movw	r30, r20
    3050:	aa 27       	eor	r26, r26
    3052:	28 30       	cpi	r18, 0x08	; 8
    3054:	51 f1       	breq	.+84     	; 0x30aa <__ultoa_invert+0x5c>
    3056:	20 31       	cpi	r18, 0x10	; 16
    3058:	81 f1       	breq	.+96     	; 0x30ba <__ultoa_invert+0x6c>
    305a:	e8 94       	clt
    305c:	6f 93       	push	r22
    305e:	6e 7f       	andi	r22, 0xFE	; 254
    3060:	6e 5f       	subi	r22, 0xFE	; 254
    3062:	7f 4f       	sbci	r23, 0xFF	; 255
    3064:	8f 4f       	sbci	r24, 0xFF	; 255
    3066:	9f 4f       	sbci	r25, 0xFF	; 255
    3068:	af 4f       	sbci	r26, 0xFF	; 255
    306a:	b1 e0       	ldi	r27, 0x01	; 1
    306c:	3e d0       	rcall	.+124    	; 0x30ea <__ultoa_invert+0x9c>
    306e:	b4 e0       	ldi	r27, 0x04	; 4
    3070:	3c d0       	rcall	.+120    	; 0x30ea <__ultoa_invert+0x9c>
    3072:	67 0f       	add	r22, r23
    3074:	78 1f       	adc	r23, r24
    3076:	89 1f       	adc	r24, r25
    3078:	9a 1f       	adc	r25, r26
    307a:	a1 1d       	adc	r26, r1
    307c:	68 0f       	add	r22, r24
    307e:	79 1f       	adc	r23, r25
    3080:	8a 1f       	adc	r24, r26
    3082:	91 1d       	adc	r25, r1
    3084:	a1 1d       	adc	r26, r1
    3086:	6a 0f       	add	r22, r26
    3088:	71 1d       	adc	r23, r1
    308a:	81 1d       	adc	r24, r1
    308c:	91 1d       	adc	r25, r1
    308e:	a1 1d       	adc	r26, r1
    3090:	20 d0       	rcall	.+64     	; 0x30d2 <__ultoa_invert+0x84>
    3092:	09 f4       	brne	.+2      	; 0x3096 <__ultoa_invert+0x48>
    3094:	68 94       	set
    3096:	3f 91       	pop	r19
    3098:	2a e0       	ldi	r18, 0x0A	; 10
    309a:	26 9f       	mul	r18, r22
    309c:	11 24       	eor	r1, r1
    309e:	30 19       	sub	r19, r0
    30a0:	30 5d       	subi	r19, 0xD0	; 208
    30a2:	31 93       	st	Z+, r19
    30a4:	de f6       	brtc	.-74     	; 0x305c <__ultoa_invert+0xe>
    30a6:	cf 01       	movw	r24, r30
    30a8:	08 95       	ret
    30aa:	46 2f       	mov	r20, r22
    30ac:	47 70       	andi	r20, 0x07	; 7
    30ae:	40 5d       	subi	r20, 0xD0	; 208
    30b0:	41 93       	st	Z+, r20
    30b2:	b3 e0       	ldi	r27, 0x03	; 3
    30b4:	0f d0       	rcall	.+30     	; 0x30d4 <__ultoa_invert+0x86>
    30b6:	c9 f7       	brne	.-14     	; 0x30aa <__ultoa_invert+0x5c>
    30b8:	f6 cf       	rjmp	.-20     	; 0x30a6 <__ultoa_invert+0x58>
    30ba:	46 2f       	mov	r20, r22
    30bc:	4f 70       	andi	r20, 0x0F	; 15
    30be:	40 5d       	subi	r20, 0xD0	; 208
    30c0:	4a 33       	cpi	r20, 0x3A	; 58
    30c2:	18 f0       	brcs	.+6      	; 0x30ca <__ultoa_invert+0x7c>
    30c4:	49 5d       	subi	r20, 0xD9	; 217
    30c6:	31 fd       	sbrc	r19, 1
    30c8:	40 52       	subi	r20, 0x20	; 32
    30ca:	41 93       	st	Z+, r20
    30cc:	02 d0       	rcall	.+4      	; 0x30d2 <__ultoa_invert+0x84>
    30ce:	a9 f7       	brne	.-22     	; 0x30ba <__ultoa_invert+0x6c>
    30d0:	ea cf       	rjmp	.-44     	; 0x30a6 <__ultoa_invert+0x58>
    30d2:	b4 e0       	ldi	r27, 0x04	; 4
    30d4:	a6 95       	lsr	r26
    30d6:	97 95       	ror	r25
    30d8:	87 95       	ror	r24
    30da:	77 95       	ror	r23
    30dc:	67 95       	ror	r22
    30de:	ba 95       	dec	r27
    30e0:	c9 f7       	brne	.-14     	; 0x30d4 <__ultoa_invert+0x86>
    30e2:	00 97       	sbiw	r24, 0x00	; 0
    30e4:	61 05       	cpc	r22, r1
    30e6:	71 05       	cpc	r23, r1
    30e8:	08 95       	ret
    30ea:	9b 01       	movw	r18, r22
    30ec:	ac 01       	movw	r20, r24
    30ee:	0a 2e       	mov	r0, r26
    30f0:	06 94       	lsr	r0
    30f2:	57 95       	ror	r21
    30f4:	47 95       	ror	r20
    30f6:	37 95       	ror	r19
    30f8:	27 95       	ror	r18
    30fa:	ba 95       	dec	r27
    30fc:	c9 f7       	brne	.-14     	; 0x30f0 <__ultoa_invert+0xa2>
    30fe:	62 0f       	add	r22, r18
    3100:	73 1f       	adc	r23, r19
    3102:	84 1f       	adc	r24, r20
    3104:	95 1f       	adc	r25, r21
    3106:	a0 1d       	adc	r26, r0
    3108:	08 95       	ret

0000310a <__prologue_saves__>:
    310a:	2f 92       	push	r2
    310c:	3f 92       	push	r3
    310e:	4f 92       	push	r4
    3110:	5f 92       	push	r5
    3112:	6f 92       	push	r6
    3114:	7f 92       	push	r7
    3116:	8f 92       	push	r8
    3118:	9f 92       	push	r9
    311a:	af 92       	push	r10
    311c:	bf 92       	push	r11
    311e:	cf 92       	push	r12
    3120:	df 92       	push	r13
    3122:	ef 92       	push	r14
    3124:	ff 92       	push	r15
    3126:	0f 93       	push	r16
    3128:	1f 93       	push	r17
    312a:	cf 93       	push	r28
    312c:	df 93       	push	r29
    312e:	cd b7       	in	r28, 0x3d	; 61
    3130:	de b7       	in	r29, 0x3e	; 62
    3132:	ca 1b       	sub	r28, r26
    3134:	db 0b       	sbc	r29, r27
    3136:	0f b6       	in	r0, 0x3f	; 63
    3138:	f8 94       	cli
    313a:	de bf       	out	0x3e, r29	; 62
    313c:	0f be       	out	0x3f, r0	; 63
    313e:	cd bf       	out	0x3d, r28	; 61
    3140:	09 94       	ijmp

00003142 <__epilogue_restores__>:
    3142:	2a 88       	ldd	r2, Y+18	; 0x12
    3144:	39 88       	ldd	r3, Y+17	; 0x11
    3146:	48 88       	ldd	r4, Y+16	; 0x10
    3148:	5f 84       	ldd	r5, Y+15	; 0x0f
    314a:	6e 84       	ldd	r6, Y+14	; 0x0e
    314c:	7d 84       	ldd	r7, Y+13	; 0x0d
    314e:	8c 84       	ldd	r8, Y+12	; 0x0c
    3150:	9b 84       	ldd	r9, Y+11	; 0x0b
    3152:	aa 84       	ldd	r10, Y+10	; 0x0a
    3154:	b9 84       	ldd	r11, Y+9	; 0x09
    3156:	c8 84       	ldd	r12, Y+8	; 0x08
    3158:	df 80       	ldd	r13, Y+7	; 0x07
    315a:	ee 80       	ldd	r14, Y+6	; 0x06
    315c:	fd 80       	ldd	r15, Y+5	; 0x05
    315e:	0c 81       	ldd	r16, Y+4	; 0x04
    3160:	1b 81       	ldd	r17, Y+3	; 0x03
    3162:	aa 81       	ldd	r26, Y+2	; 0x02
    3164:	b9 81       	ldd	r27, Y+1	; 0x01
    3166:	ce 0f       	add	r28, r30
    3168:	d1 1d       	adc	r29, r1
    316a:	0f b6       	in	r0, 0x3f	; 63
    316c:	f8 94       	cli
    316e:	de bf       	out	0x3e, r29	; 62
    3170:	0f be       	out	0x3f, r0	; 63
    3172:	cd bf       	out	0x3d, r28	; 61
    3174:	ed 01       	movw	r28, r26
    3176:	08 95       	ret

00003178 <_exit>:
    3178:	f8 94       	cli

0000317a <__stop_program>:
    317a:	ff cf       	rjmp	.-2      	; 0x317a <__stop_program>
